; Listing generated by Microsoft (R) Optimizing Compiler Version 19.33.31629.0 

	TITLE	D:\BSTU\2 sem\KPO\Labs\1 lab\lab1\first task\Debug\DATA_CHECK.obj
	.686P
	.XMM
	include listing.inc
	.model	flat

INCLUDELIB MSVCRTD
INCLUDELIB OLDNAMES

PUBLIC	?days_in_month@@3PAHA				; days_in_month
msvcjmc	SEGMENT
__0C632BB5_concurrencysal@h DB 01H
__D9B3E323_sal@h DB 01H
__68A61E54_vadefs@h DB 01H
__D24086D2_vcruntime@h DB 01H
__369DC3CF_xkeycheck@h DB 01H
__ACD4FF33_yvals_core@h DB 01H
__AEDD5E0D_limits@h DB 01H
__9E361CE0_climits DB 01H
__D3DE660D_corecrt@h DB 01H
__AB5758BB_vcruntime_new@h DB 01H
__BE1FCED5_vcruntime_new_debug@h DB 01H
__98189629_crtdbg@h DB 01H
__75C62C19_crtdefs@h DB 01H
__78DED866_use_ansi@h DB 01H
__AC9988AD_yvals@h DB 01H
__9FA8BB4C_corecrt_math@h DB 01H
__D474C801_math@h DB 01H
__7DE9E36C_corecrt_malloc@h DB 01H
__18B0C22D_stddef@h DB 01H
__C55A8E02_corecrt_search@h DB 01H
__4FBC8514_corecrt_wstdlib@h DB 01H
__651F9E88_stdlib@h DB 01H
__1AD93E12_cstdlib DB 01H
__83D0EA2F_xtr1common DB 01H
__177C99D9_intrin0@inl@h DB 01H
__6CEB9512_intrin0@h DB 01H
__BB09ED94_cmath DB 01H
__4C2892DF_corecrt_stdio_config@h DB 01H
__93572EE7_corecrt_wstdio@h DB 01H
__5F67261C_stdio@h DB 01H
__97FE3E06_cstdio DB 01H
__FF47366E_errno@h DB 01H
__F2F2C604_vcruntime_string@h DB 01H
__C40B9FB8_corecrt_memcpy_s@h DB 01H
__B698C7EE_corecrt_memory@h DB 01H
__C9CF11B0_corecrt_wstring@h DB 01H
__E36C0A2C_string@h DB 01H
__564B96F2_cstring DB 01H
__D72858D0_corecrt_wconio@h DB 01H
__4C7F7CD9_corecrt_wctype@h DB 01H
__9042FC79_corecrt_wdirect@h DB 01H
__613ADF9A_corecrt_share@h DB 01H
__D1540E55_corecrt_wio@h DB 01H
__BA5DDA64_corecrt_wprocess@h DB 01H
__D96B3561_corecrt_wtime@h DB 01H
__31F68727_types@h DB 01H
__187702CE_stat@h DB 01H
__A141C5E1_wchar@h DB 01H
__0D75E855_cwchar DB 01H
__BF12E4BF_cstddef DB 01H
__16A55D86_initializer_list DB 01H
__DACB2C8B_xstddef DB 01H
__4EB56D63_iosfwd DB 01H
__10AB7032_stdint@h DB 01H
__A787DF6F_cstdint DB 01H
__78340504_type_traits DB 01H
__2DD4BB99_utility DB 01H
__7C7308CF_xutility DB 01H
__6DDFBF8F_iterator DB 01H
__691C3EC4_share@h DB 01H
__B97A9922___msvc_system_error_abi@hpp DB 01H
__0ADF4AFD_cerrno DB 01H
__F132B97E_malloc@h DB 01H
__80E0E355_corecrt_terminate@h DB 01H
__42EA056F_eh@h DB 01H
__B6F1CB87_vcruntime_exception@h DB 01H
__BD99428F_exception DB 01H
__271340EC_float@h DB 01H
__E4BAF581_cfloat DB 01H
__2179CC77_isa_availability@h DB 01H
__825CB8E5_limits DB 01H
__F3D17BBD_new DB 01H
__B795CE59_xatomic@h DB 01H
__4741D85A_xmemory DB 01H
__33925EC6_xstring DB 01H
__34D778D2_stdexcept DB 01H
__EF4C2163_xcall_once@h DB 01H
__040C9DA2_xerrc@h DB 01H
__E5145BD5_time@h DB 01H
__7DBA719C_ctime DB 01H
__CAB7EB8E_xtimec@h DB 01H
__1990EFD5_xthreads@h DB 01H
__E969E427_atomic DB 01H
__50113343_system_error DB 01H
__83E9158C_vcruntime_typeinfo@h DB 01H
__0CACFBD6_typeinfo DB 01H
__3EF2B46B_memory DB 01H
__12B7E364_xfacet DB 01H
__E173EB37___msvc_xlocinfo_types@hpp DB 01H
__804F7422_ctype@h DB 01H
__9835D9A1_cctype DB 01H
__72596785_locale@h DB 01H
__8975E2C3_clocale DB 01H
__1325181E_xlocinfo DB 01H
__ECAC2AF7_xlocale DB 01H
__2AC06F0D_xiosbase DB 01H
__3677C06E_streambuf DB 01H
__722B4CE0_xlocnum DB 01H
__0B1C41AB_ios DB 01H
__FFBCF033_ostream DB 01H
__9C6CC509_istream DB 01H
__1E0A72D0_iostream DB 01H
__4A2132F7_string DB 01H
__FCDCC866_stdafx@h DB 01H
__C2A978EA_DATA_CHECK@cpp DB 01H
msvcjmc	ENDS
_DATA	SEGMENT
?days_in_month@@3PAHA DD 01fH				; days_in_month
	DD	01cH
	DD	01fH
	DD	01eH
	DD	01fH
	DD	01eH
	DD	01fH
	DD	01fH
	DD	01eH
	DD	01fH
	DD	01eH
	DD	01fH
_DATA	ENDS
PUBLIC	?__empty_global_delete@@YAXPAX@Z		; __empty_global_delete
PUBLIC	?__empty_global_delete@@YAXPAXI@Z		; __empty_global_delete
PUBLIC	?_Adjust_manually_vector_aligned@std@@YAXAAPAXAAI@Z ; std::_Adjust_manually_vector_aligned
PUBLIC	?_Orphan_all@_Container_base12@std@@QAEXXZ	; std::_Container_base12::_Orphan_all
PUBLIC	?_Orphan_all_unlocked_v3@_Container_base12@std@@AAEXXZ ; std::_Container_base12::_Orphan_all_unlocked_v3
PUBLIC	?_Orphan_all_locked_v3@_Container_base12@std@@AAEXXZ ; std::_Container_base12::_Orphan_all_locked_v3
PUBLIC	?length@?$_Narrow_char_traits@DH@std@@SAIQBD@Z	; std::_Narrow_char_traits<char,int>::length
PUBLIC	?assign@?$_Narrow_char_traits@DH@std@@SAXAADABD@Z ; std::_Narrow_char_traits<char,int>::assign
PUBLIC	?eq_int_type@?$_Narrow_char_traits@DH@std@@SA_NABH0@Z ; std::_Narrow_char_traits<char,int>::eq_int_type
PUBLIC	?eof@?$_Narrow_char_traits@DH@std@@SAHXZ	; std::_Narrow_char_traits<char,int>::eof
PUBLIC	?deallocate@?$allocator@D@std@@QAEXQADI@Z	; std::allocator<char>::deallocate
PUBLIC	?_Myptr@?$_String_val@U?$_Simple_types@D@std@@@std@@QAEPADXZ ; std::_String_val<std::_Simple_types<char> >::_Myptr
PUBLIC	?_Large_string_engaged@?$_String_val@U?$_Simple_types@D@std@@@std@@QBE_NXZ ; std::_String_val<std::_Simple_types<char> >::_Large_string_engaged
PUBLIC	??1_Bxty@?$_String_val@U?$_Simple_types@D@std@@@std@@QAE@XZ ; std::_String_val<std::_Simple_types<char> >::_Bxty::~_Bxty
PUBLIC	??1?$_String_val@U?$_Simple_types@D@std@@@std@@QAE@XZ ; std::_String_val<std::_Simple_types<char> >::~_String_val<std::_Simple_types<char> >
PUBLIC	??1?$basic_string@DU?$char_traits@D@std@@V?$allocator@D@2@@std@@QAE@XZ ; std::basic_string<char,std::char_traits<char>,std::allocator<char> >::~basic_string<char,std::char_traits<char>,std::allocator<char> >
PUBLIC	??A?$basic_string@DU?$char_traits@D@std@@V?$allocator@D@2@@std@@QAEAADI@Z ; std::basic_string<char,std::char_traits<char>,std::allocator<char> >::operator[]
PUBLIC	?size@?$basic_string@DU?$char_traits@D@std@@V?$allocator@D@2@@std@@QBEIXZ ; std::basic_string<char,std::char_traits<char>,std::allocator<char> >::size
PUBLIC	?_Tidy_deallocate@?$basic_string@DU?$char_traits@D@std@@V?$allocator@D@2@@std@@AAEXXZ ; std::basic_string<char,std::char_traits<char>,std::allocator<char> >::_Tidy_deallocate
PUBLIC	?_Getal@?$basic_string@DU?$char_traits@D@std@@V?$allocator@D@2@@std@@AAEAAV?$allocator@D@2@XZ ; std::basic_string<char,std::char_traits<char>,std::allocator<char> >::_Getal
PUBLIC	?_Get_first@?$_Compressed_pair@V?$allocator@D@std@@V?$_String_val@U?$_Simple_types@D@std@@@2@$00@std@@QAEAAV?$allocator@D@2@XZ ; std::_Compressed_pair<std::allocator<char>,std::_String_val<std::_Simple_types<char> >,1>::_Get_first
PUBLIC	??1?$_Compressed_pair@V?$allocator@D@std@@V?$_String_val@U?$_Simple_types@D@std@@@2@$00@std@@QAE@XZ ; std::_Compressed_pair<std::allocator<char>,std::_String_val<std::_Simple_types<char> >,1>::~_Compressed_pair<std::allocator<char>,std::_String_val<std::_Simple_types<char> >,1>
PUBLIC	?data_check@@YA_NHHH@Z				; data_check
PUBLIC	?DAY_NUMBER@@YAHHH@Z				; DAY_NUMBER
PUBLIC	?BIRTHDAY_COUNT@@YAHHHHHH@Z			; BIRTHDAY_COUNT
PUBLIC	?birthday_datecheck@@YA_NV?$basic_string@DU?$char_traits@D@std@@V?$allocator@D@2@@std@@@Z ; birthday_datecheck
PUBLIC	?birthday_data_check@@YA_NHHH@Z			; birthday_data_check
PUBLIC	?date_check@@YA_NV?$basic_string@DU?$char_traits@D@std@@V?$allocator@D@2@@std@@@Z ; date_check
PUBLIC	??$?6U?$char_traits@D@std@@@std@@YAAAV?$basic_ostream@DU?$char_traits@D@std@@@0@AAV10@PBD@Z ; std::operator<<<std::char_traits<char> >
PUBLIC	??$endl@DU?$char_traits@D@std@@@std@@YAAAV?$basic_ostream@DU?$char_traits@D@std@@@0@AAV10@@Z ; std::endl<char,std::char_traits<char> >
PUBLIC	??$_Delete_plain_internal@V?$allocator@U_Container_proxy@std@@@std@@@std@@YAXAAV?$allocator@U_Container_proxy@std@@@0@QAU_Container_proxy@0@@Z ; std::_Delete_plain_internal<std::allocator<std::_Container_proxy> >
PUBLIC	??$?0D@?$allocator@U_Container_proxy@std@@@std@@QAE@ABV?$allocator@D@1@@Z ; std::allocator<std::_Container_proxy>::allocator<std::_Container_proxy><char>
PUBLIC	??$_Destroy_in_place@PAD@std@@YAXAAPAD@Z	; std::_Destroy_in_place<char *>
PUBLIC	??$_Unfancy@D@std@@YAPADPAD@Z			; std::_Unfancy<char>
PUBLIC	??$_Deallocate@$07$0A@@std@@YAXPAXI@Z		; std::_Deallocate<8,0>
PUBLIC	??0_Sentry_base@?$basic_ostream@DU?$char_traits@D@std@@@std@@QAE@AAV12@@Z ; std::basic_ostream<char,std::char_traits<char> >::_Sentry_base::_Sentry_base
PUBLIC	??1_Sentry_base@?$basic_ostream@DU?$char_traits@D@std@@@std@@QAE@XZ ; std::basic_ostream<char,std::char_traits<char> >::_Sentry_base::~_Sentry_base
PUBLIC	??0sentry@?$basic_ostream@DU?$char_traits@D@std@@@std@@QAE@AAV12@@Z ; std::basic_ostream<char,std::char_traits<char> >::sentry::sentry
PUBLIC	??1sentry@?$basic_ostream@DU?$char_traits@D@std@@@std@@QAE@XZ ; std::basic_ostream<char,std::char_traits<char> >::sentry::~sentry
PUBLIC	??Bsentry@?$basic_ostream@DU?$char_traits@D@std@@@std@@QBE_NXZ ; std::basic_ostream<char,std::char_traits<char> >::sentry::operator bool
PUBLIC	??$_Deallocate_plain@V?$allocator@U_Container_proxy@std@@@std@@@std@@YAXAAV?$allocator@U_Container_proxy@std@@@0@QAU_Container_proxy@0@@Z ; std::_Deallocate_plain<std::allocator<std::_Container_proxy> >
PUBLIC	?deallocate@?$_Default_allocator_traits@V?$allocator@U_Container_proxy@std@@@std@@@std@@SAXAAV?$allocator@U_Container_proxy@std@@@2@QAU_Container_proxy@2@I@Z ; std::_Default_allocator_traits<std::allocator<std::_Container_proxy> >::deallocate
PUBLIC	__JustMyCode_Default
PUBLIC	?__LINE__Var@?0??_Adjust_manually_vector_aligned@std@@YAXAAPAXAAI@Z@4JA ; `std::_Adjust_manually_vector_aligned'::`1'::__LINE__Var
PUBLIC	??_C@_0BB@FCMFBGOM@invalid?5argument@		; `string'
PUBLIC	??_C@_02DKCKIIND@?$CFs@				; `string'
PUBLIC	??_C@_0EK@OBOBEOCC@D?3?2Soft?2Microsoft?5Visual?5Studio@ ; `string'
PUBLIC	??_C@_1JE@GMPNMMMK@?$AAD?$AA?3?$AA?2?$AAS?$AAo?$AAf?$AAt?$AA?2?$AAM?$AAi?$AAc?$AAr?$AAo?$AAs?$AAo@ ; `string'
PUBLIC	??_C@_11LOCGONAA@@				; `string'
PUBLIC	??_C@_1CG@JNLFBNGN@?$AA?$CC?$AAi?$AAn?$AAv?$AAa?$AAl?$AAi?$AAd?$AA?5?$AAa?$AAr?$AAg?$AAu?$AAm?$AAe@ ; `string'
PUBLIC	??_C@_0BI@BFGCFCDH@?S?j?$OA?g?$OA?m?5?m?e?o?p?$OA?b?h?k?$PM?m?$PL?i?5?c?n?d@ ; `string'
PUBLIC	??_C@_0BK@IFNNDDB@?S?j?$OA?g?$OA?m?5?m?e?o?p?$OA?b?h?k?$PM?m?$PL?i?5?l?e?q?$PP?v@ ; `string'
PUBLIC	??_C@_0BJ@GKFBAJHC@?S?j?$OA?g?$OA?m?5?m?e?o?p?$OA?b?h?k?$PM?m?$PL?i?5?d?e?m?$PM@ ; `string'
PUBLIC	??_C@_0BC@GGJMFGDD@HAPPY?5BIRTHDAY?$CB?$CB?$CB@	; `string'
PUBLIC	??_C@_0BO@LFGPDMIB@string?5subscript?5out?5of?5range@ ; `string'
PUBLIC	??_C@_0EK@BICMECML@D?3?2Soft?2Microsoft?5Visual?5Studio@ ; `string'
PUBLIC	??_C@_1JE@ICHBDFBL@?$AAD?$AA?3?$AA?2?$AAS?$AAo?$AAf?$AAt?$AA?2?$AAM?$AAi?$AAc?$AAr?$AAo?$AAs?$AAo@ ; `string'
PUBLIC	??_C@_1EA@OADAPGGK@?$AA?$CC?$AAs?$AAt?$AAr?$AAi?$AAn?$AAg?$AA?5?$AAs?$AAu?$AAb?$AAs?$AAc?$AAr?$AAi@ ; `string'
PUBLIC	??_C@_0DG@KGHKKGBC@null?5pointer?5cannot?5point?5to?5a?5@ ; `string'
PUBLIC	??_C@_1HA@FACCKGGH@?$AA?$CC?$AAn?$AAu?$AAl?$AAl?$AA?5?$AAp?$AAo?$AAi?$AAn?$AAt?$AAe?$AAr?$AA?5?$AAc@ ; `string'
EXTRN	??3@YAXPAXI@Z:PROC				; operator delete
EXTRN	__imp___invalid_parameter:PROC
EXTRN	__imp___CrtDbgReport:PROC
EXTRN	__imp_??0_Lockit@std@@QAE@H@Z:PROC
EXTRN	__imp_??1_Lockit@std@@QAE@XZ:PROC
EXTRN	_abs:PROC
EXTRN	_strlen:PROC
EXTRN	?uncaught_exception@std@@YA_NXZ:PROC		; std::uncaught_exception
EXTRN	__imp_?good@ios_base@std@@QBE_NXZ:PROC
EXTRN	__imp_?flags@ios_base@std@@QBEHXZ:PROC
EXTRN	__imp_?width@ios_base@std@@QBE_JXZ:PROC
EXTRN	__imp_?width@ios_base@std@@QAE_J_J@Z:PROC
EXTRN	__imp_?sputc@?$basic_streambuf@DU?$char_traits@D@std@@@std@@QAEHD@Z:PROC
EXTRN	__imp_?sputn@?$basic_streambuf@DU?$char_traits@D@std@@@std@@QAE_JPBD_J@Z:PROC
EXTRN	__imp_?setstate@?$basic_ios@DU?$char_traits@D@std@@@std@@QAEXH_N@Z:PROC
EXTRN	__imp_?tie@?$basic_ios@DU?$char_traits@D@std@@@std@@QBEPAV?$basic_ostream@DU?$char_traits@D@std@@@2@XZ:PROC
EXTRN	__imp_?rdbuf@?$basic_ios@DU?$char_traits@D@std@@@std@@QBEPAV?$basic_streambuf@DU?$char_traits@D@std@@@2@XZ:PROC
EXTRN	__imp_?fill@?$basic_ios@DU?$char_traits@D@std@@@std@@QBEDXZ:PROC
EXTRN	__imp_?widen@?$basic_ios@DU?$char_traits@D@std@@@std@@QBEDD@Z:PROC
EXTRN	__imp_?_Osfx@?$basic_ostream@DU?$char_traits@D@std@@@std@@QAEXXZ:PROC
EXTRN	__imp_??6?$basic_ostream@DU?$char_traits@D@std@@@std@@QAEAAV01@P6AAAV01@AAV01@@Z@Z:PROC
EXTRN	__imp_?put@?$basic_ostream@DU?$char_traits@D@std@@@std@@QAEAAV12@D@Z:PROC
EXTRN	__imp_?flush@?$basic_ostream@DU?$char_traits@D@std@@@std@@QAEAAV12@XZ:PROC
EXTRN	?LEAP_YEAR_CHECK@@YA_NH@Z:PROC			; LEAP_YEAR_CHECK
EXTRN	@_RTC_CheckStackVars@8:PROC
EXTRN	@__CheckForDebuggerJustMyCode@4:PROC
EXTRN	@__security_check_cookie@4:PROC
EXTRN	__RTC_CheckEsp:PROC
EXTRN	__RTC_InitBase:PROC
EXTRN	__RTC_Shutdown:PROC
EXTRN	___CxxFrameHandler3:PROC
EXTRN	__imp_?cout@std@@3V?$basic_ostream@DU?$char_traits@D@std@@@1@A:BYTE
EXTRN	___security_cookie:DWORD
;	COMDAT rtc$TMZ
rtc$TMZ	SEGMENT
__RTC_Shutdown.rtc$TMZ DD FLAT:__RTC_Shutdown
rtc$TMZ	ENDS
;	COMDAT rtc$IMZ
rtc$IMZ	SEGMENT
__RTC_InitBase.rtc$IMZ DD FLAT:__RTC_InitBase
rtc$IMZ	ENDS
;	COMDAT ??_C@_1HA@FACCKGGH@?$AA?$CC?$AAn?$AAu?$AAl?$AAl?$AA?5?$AAp?$AAo?$AAi?$AAn?$AAt?$AAe?$AAr?$AA?5?$AAc@
CONST	SEGMENT
??_C@_1HA@FACCKGGH@?$AA?$CC?$AAn?$AAu?$AAl?$AAl?$AA?5?$AAp?$AAo?$AAi?$AAn?$AAt?$AAe?$AAr?$AA?5?$AAc@ DB '"'
	DB	00H, 'n', 00H, 'u', 00H, 'l', 00H, 'l', 00H, ' ', 00H, 'p', 00H
	DB	'o', 00H, 'i', 00H, 'n', 00H, 't', 00H, 'e', 00H, 'r', 00H, ' '
	DB	00H, 'c', 00H, 'a', 00H, 'n', 00H, 'n', 00H, 'o', 00H, 't', 00H
	DB	' ', 00H, 'p', 00H, 'o', 00H, 'i', 00H, 'n', 00H, 't', 00H, ' '
	DB	00H, 't', 00H, 'o', 00H, ' ', 00H, 'a', 00H, ' ', 00H, 'b', 00H
	DB	'l', 00H, 'o', 00H, 'c', 00H, 'k', 00H, ' ', 00H, 'o', 00H, 'f'
	DB	00H, ' ', 00H, 'n', 00H, 'o', 00H, 'n', 00H, '-', 00H, 'z', 00H
	DB	'e', 00H, 'r', 00H, 'o', 00H, ' ', 00H, 's', 00H, 'i', 00H, 'z'
	DB	00H, 'e', 00H, '"', 00H, 00H, 00H		; `string'
CONST	ENDS
;	COMDAT ??_C@_0DG@KGHKKGBC@null?5pointer?5cannot?5point?5to?5a?5@
CONST	SEGMENT
??_C@_0DG@KGHKKGBC@null?5pointer?5cannot?5point?5to?5a?5@ DB 'null pointe'
	DB	'r cannot point to a block of non-zero size', 00H ; `string'
CONST	ENDS
;	COMDAT ??_C@_1EA@OADAPGGK@?$AA?$CC?$AAs?$AAt?$AAr?$AAi?$AAn?$AAg?$AA?5?$AAs?$AAu?$AAb?$AAs?$AAc?$AAr?$AAi@
CONST	SEGMENT
??_C@_1EA@OADAPGGK@?$AA?$CC?$AAs?$AAt?$AAr?$AAi?$AAn?$AAg?$AA?5?$AAs?$AAu?$AAb?$AAs?$AAc?$AAr?$AAi@ DB '"'
	DB	00H, 's', 00H, 't', 00H, 'r', 00H, 'i', 00H, 'n', 00H, 'g', 00H
	DB	' ', 00H, 's', 00H, 'u', 00H, 'b', 00H, 's', 00H, 'c', 00H, 'r'
	DB	00H, 'i', 00H, 'p', 00H, 't', 00H, ' ', 00H, 'o', 00H, 'u', 00H
	DB	't', 00H, ' ', 00H, 'o', 00H, 'f', 00H, ' ', 00H, 'r', 00H, 'a'
	DB	00H, 'n', 00H, 'g', 00H, 'e', 00H, '"', 00H, 00H, 00H ; `string'
CONST	ENDS
;	COMDAT ??_C@_1JE@ICHBDFBL@?$AAD?$AA?3?$AA?2?$AAS?$AAo?$AAf?$AAt?$AA?2?$AAM?$AAi?$AAc?$AAr?$AAo?$AAs?$AAo@
CONST	SEGMENT
??_C@_1JE@ICHBDFBL@?$AAD?$AA?3?$AA?2?$AAS?$AAo?$AAf?$AAt?$AA?2?$AAM?$AAi?$AAc?$AAr?$AAo?$AAs?$AAo@ DB 'D'
	DB	00H, ':', 00H, '\', 00H, 'S', 00H, 'o', 00H, 'f', 00H, 't', 00H
	DB	'\', 00H, 'M', 00H, 'i', 00H, 'c', 00H, 'r', 00H, 'o', 00H, 's'
	DB	00H, 'o', 00H, 'f', 00H, 't', 00H, ' ', 00H, 'V', 00H, 'i', 00H
	DB	's', 00H, 'u', 00H, 'a', 00H, 'l', 00H, ' ', 00H, 'S', 00H, 't'
	DB	00H, 'u', 00H, 'd', 00H, 'i', 00H, 'o', 00H, '\', 00H, 'V', 00H
	DB	'C', 00H, '\', 00H, 'T', 00H, 'o', 00H, 'o', 00H, 'l', 00H, 's'
	DB	00H, '\', 00H, 'M', 00H, 'S', 00H, 'V', 00H, 'C', 00H, '\', 00H
	DB	'1', 00H, '4', 00H, '.', 00H, '3', 00H, '3', 00H, '.', 00H, '3'
	DB	00H, '1', 00H, '6', 00H, '2', 00H, '9', 00H, '\', 00H, 'i', 00H
	DB	'n', 00H, 'c', 00H, 'l', 00H, 'u', 00H, 'd', 00H, 'e', 00H, '\'
	DB	00H, 'x', 00H, 's', 00H, 't', 00H, 'r', 00H, 'i', 00H, 'n', 00H
	DB	'g', 00H, 00H, 00H				; `string'
CONST	ENDS
;	COMDAT ??_C@_0EK@BICMECML@D?3?2Soft?2Microsoft?5Visual?5Studio@
CONST	SEGMENT
??_C@_0EK@BICMECML@D?3?2Soft?2Microsoft?5Visual?5Studio@ DB 'D:\Soft\Micr'
	DB	'osoft Visual Studio\VC\Tools\MSVC\14.33.31629\include\xstring'
	DB	00H						; `string'
CONST	ENDS
;	COMDAT ??_C@_0BO@LFGPDMIB@string?5subscript?5out?5of?5range@
CONST	SEGMENT
??_C@_0BO@LFGPDMIB@string?5subscript?5out?5of?5range@ DB 'string subscrip'
	DB	't out of range', 00H			; `string'
CONST	ENDS
;	COMDAT ??_C@_0BC@GGJMFGDD@HAPPY?5BIRTHDAY?$CB?$CB?$CB@
CONST	SEGMENT
??_C@_0BC@GGJMFGDD@HAPPY?5BIRTHDAY?$CB?$CB?$CB@ DB 'HAPPY BIRTHDAY!!!', 00H ; `string'
CONST	ENDS
;	COMDAT ??_C@_0BJ@GKFBAJHC@?S?j?$OA?g?$OA?m?5?m?e?o?p?$OA?b?h?k?$PM?m?$PL?i?5?d?e?m?$PM@
CONST	SEGMENT
??_C@_0BJ@GKFBAJHC@?S?j?$OA?g?$OA?m?5?m?e?o?p?$OA?b?h?k?$PM?m?$PL?i?5?d?e?m?$PM@ DB 0d3H
	DB	0eaH, 0e0H, 0e7H, 0e0H, 0edH, ' ', 0edH, 0e5H, 0efH, 0f0H, 0e0H
	DB	0e2H, 0e8H, 0ebH, 0fcH, 0edH, 0fbH, 0e9H, ' ', 0e4H, 0e5H, 0edH
	DB	0fcH, 00H					; `string'
CONST	ENDS
;	COMDAT ??_C@_0BK@IFNNDDB@?S?j?$OA?g?$OA?m?5?m?e?o?p?$OA?b?h?k?$PM?m?$PL?i?5?l?e?q?$PP?v@
CONST	SEGMENT
??_C@_0BK@IFNNDDB@?S?j?$OA?g?$OA?m?5?m?e?o?p?$OA?b?h?k?$PM?m?$PL?i?5?l?e?q?$PP?v@ DB 0d3H
	DB	0eaH, 0e0H, 0e7H, 0e0H, 0edH, ' ', 0edH, 0e5H, 0efH, 0f0H, 0e0H
	DB	0e2H, 0e8H, 0ebH, 0fcH, 0edH, 0fbH, 0e9H, ' ', 0ecH, 0e5H, 0f1H
	DB	0ffH, 0f6H, 00H				; `string'
CONST	ENDS
;	COMDAT ??_C@_0BI@BFGCFCDH@?S?j?$OA?g?$OA?m?5?m?e?o?p?$OA?b?h?k?$PM?m?$PL?i?5?c?n?d@
CONST	SEGMENT
??_C@_0BI@BFGCFCDH@?S?j?$OA?g?$OA?m?5?m?e?o?p?$OA?b?h?k?$PM?m?$PL?i?5?c?n?d@ DB 0d3H
	DB	0eaH, 0e0H, 0e7H, 0e0H, 0edH, ' ', 0edH, 0e5H, 0efH, 0f0H, 0e0H
	DB	0e2H, 0e8H, 0ebH, 0fcH, 0edH, 0fbH, 0e9H, ' ', 0e3H, 0eeH, 0e4H
	DB	00H						; `string'
CONST	ENDS
;	COMDAT ??_C@_1CG@JNLFBNGN@?$AA?$CC?$AAi?$AAn?$AAv?$AAa?$AAl?$AAi?$AAd?$AA?5?$AAa?$AAr?$AAg?$AAu?$AAm?$AAe@
CONST	SEGMENT
??_C@_1CG@JNLFBNGN@?$AA?$CC?$AAi?$AAn?$AAv?$AAa?$AAl?$AAi?$AAd?$AA?5?$AAa?$AAr?$AAg?$AAu?$AAm?$AAe@ DB '"'
	DB	00H, 'i', 00H, 'n', 00H, 'v', 00H, 'a', 00H, 'l', 00H, 'i', 00H
	DB	'd', 00H, ' ', 00H, 'a', 00H, 'r', 00H, 'g', 00H, 'u', 00H, 'm'
	DB	00H, 'e', 00H, 'n', 00H, 't', 00H, '"', 00H, 00H, 00H ; `string'
CONST	ENDS
;	COMDAT ??_C@_11LOCGONAA@@
CONST	SEGMENT
??_C@_11LOCGONAA@@ DB 00H, 00H				; `string'
CONST	ENDS
;	COMDAT ??_C@_1JE@GMPNMMMK@?$AAD?$AA?3?$AA?2?$AAS?$AAo?$AAf?$AAt?$AA?2?$AAM?$AAi?$AAc?$AAr?$AAo?$AAs?$AAo@
CONST	SEGMENT
??_C@_1JE@GMPNMMMK@?$AAD?$AA?3?$AA?2?$AAS?$AAo?$AAf?$AAt?$AA?2?$AAM?$AAi?$AAc?$AAr?$AAo?$AAs?$AAo@ DB 'D'
	DB	00H, ':', 00H, '\', 00H, 'S', 00H, 'o', 00H, 'f', 00H, 't', 00H
	DB	'\', 00H, 'M', 00H, 'i', 00H, 'c', 00H, 'r', 00H, 'o', 00H, 's'
	DB	00H, 'o', 00H, 'f', 00H, 't', 00H, ' ', 00H, 'V', 00H, 'i', 00H
	DB	's', 00H, 'u', 00H, 'a', 00H, 'l', 00H, ' ', 00H, 'S', 00H, 't'
	DB	00H, 'u', 00H, 'd', 00H, 'i', 00H, 'o', 00H, '\', 00H, 'V', 00H
	DB	'C', 00H, '\', 00H, 'T', 00H, 'o', 00H, 'o', 00H, 'l', 00H, 's'
	DB	00H, '\', 00H, 'M', 00H, 'S', 00H, 'V', 00H, 'C', 00H, '\', 00H
	DB	'1', 00H, '4', 00H, '.', 00H, '3', 00H, '3', 00H, '.', 00H, '3'
	DB	00H, '1', 00H, '6', 00H, '2', 00H, '9', 00H, '\', 00H, 'i', 00H
	DB	'n', 00H, 'c', 00H, 'l', 00H, 'u', 00H, 'd', 00H, 'e', 00H, '\'
	DB	00H, 'x', 00H, 'm', 00H, 'e', 00H, 'm', 00H, 'o', 00H, 'r', 00H
	DB	'y', 00H, 00H, 00H				; `string'
CONST	ENDS
;	COMDAT ??_C@_0EK@OBOBEOCC@D?3?2Soft?2Microsoft?5Visual?5Studio@
CONST	SEGMENT
??_C@_0EK@OBOBEOCC@D?3?2Soft?2Microsoft?5Visual?5Studio@ DB 'D:\Soft\Micr'
	DB	'osoft Visual Studio\VC\Tools\MSVC\14.33.31629\include\xmemory'
	DB	00H						; `string'
CONST	ENDS
;	COMDAT ??_C@_02DKCKIIND@?$CFs@
CONST	SEGMENT
??_C@_02DKCKIIND@?$CFs@ DB '%s', 00H			; `string'
CONST	ENDS
;	COMDAT ??_C@_0BB@FCMFBGOM@invalid?5argument@
CONST	SEGMENT
??_C@_0BB@FCMFBGOM@invalid?5argument@ DB 'invalid argument', 00H ; `string'
CONST	ENDS
;	COMDAT ?__LINE__Var@?0??_Adjust_manually_vector_aligned@std@@YAXAAPAXAAI@Z@4JA
_DATA	SEGMENT
?__LINE__Var@?0??_Adjust_manually_vector_aligned@std@@YAXAAPAXAAI@Z@4JA DD 093H ; `std::_Adjust_manually_vector_aligned'::`1'::__LINE__Var
_DATA	ENDS
;	COMDAT voltbl
voltbl	SEGMENT
_volmd	DB	09H
voltbl	ENDS
;	COMDAT xdata$x
xdata$x	SEGMENT
__ehfuncinfo$??$_Deallocate_plain@V?$allocator@U_Container_proxy@std@@@std@@@std@@YAXAAV?$allocator@U_Container_proxy@std@@@0@QAU_Container_proxy@0@@Z DD 019930522H
	DD	00H
	DD	00H
	DD	2 DUP(00H)
	DD	2 DUP(00H)
	DD	00H
	DD	05H
xdata$x	ENDS
;	COMDAT voltbl
voltbl	SEGMENT
_volmd	DB	09H
voltbl	ENDS
;	COMDAT xdata$x
xdata$x	SEGMENT
__ehfuncinfo$??1sentry@?$basic_ostream@DU?$char_traits@D@std@@@std@@QAE@XZ DD 019930522H
	DD	00H
	DD	00H
	DD	2 DUP(00H)
	DD	2 DUP(00H)
	DD	00H
	DD	05H
xdata$x	ENDS
;	COMDAT voltbl
voltbl	SEGMENT
_volmd	DB	016H
voltbl	ENDS
;	COMDAT xdata$x
xdata$x	SEGMENT
__unwindtable$??0sentry@?$basic_ostream@DU?$char_traits@D@std@@@std@@QAE@AAV12@@Z DD 0ffffffffH
	DD	FLAT:__unwindfunclet$??0sentry@?$basic_ostream@DU?$char_traits@D@std@@@std@@QAE@AAV12@@Z$0
__ehfuncinfo$??0sentry@?$basic_ostream@DU?$char_traits@D@std@@@std@@QAE@AAV12@@Z DD 019930522H
	DD	01H
	DD	FLAT:__unwindtable$??0sentry@?$basic_ostream@DU?$char_traits@D@std@@@std@@QAE@AAV12@@Z
	DD	2 DUP(00H)
	DD	2 DUP(00H)
	DD	00H
	DD	01H
xdata$x	ENDS
;	COMDAT voltbl
voltbl	SEGMENT
_volmd	DB	09H
voltbl	ENDS
;	COMDAT xdata$x
xdata$x	SEGMENT
__ehfuncinfo$??1_Sentry_base@?$basic_ostream@DU?$char_traits@D@std@@@std@@QAE@XZ DD 019930522H
	DD	00H
	DD	00H
	DD	2 DUP(00H)
	DD	2 DUP(00H)
	DD	00H
	DD	05H
xdata$x	ENDS
;	COMDAT voltbl
voltbl	SEGMENT
_volmd	DB	09H
voltbl	ENDS
;	COMDAT xdata$x
xdata$x	SEGMENT
__ehfuncinfo$??$_Deallocate@$07$0A@@std@@YAXPAXI@Z DD 019930522H
	DD	00H
	DD	00H
	DD	2 DUP(00H)
	DD	2 DUP(00H)
	DD	00H
	DD	05H
xdata$x	ENDS
;	COMDAT voltbl
voltbl	SEGMENT
_volmd	DB	016H
	DB	023H
voltbl	ENDS
;	COMDAT voltbl
voltbl	SEGMENT
_volmd	DW	034H
	DW	0477H
voltbl	ENDS
;	COMDAT xdata$x
xdata$x	SEGMENT
__catchsym$??$?6U?$char_traits@D@std@@@std@@YAAAV?$basic_ostream@DU?$char_traits@D@std@@@0@AAV10@PBD@Z$3 DD 040H
	DD	00H
	DD	00H
	DD	FLAT:__catch$??$?6U?$char_traits@D@std@@@std@@YAAAV?$basic_ostream@DU?$char_traits@D@std@@@0@AAV10@PBD@Z$0
__tryblocktable$??$?6U?$char_traits@D@std@@@std@@YAAAV?$basic_ostream@DU?$char_traits@D@std@@@0@AAV10@PBD@Z DD 01H
	DD	01H
	DD	02H
	DD	01H
	DD	FLAT:__catchsym$??$?6U?$char_traits@D@std@@@std@@YAAAV?$basic_ostream@DU?$char_traits@D@std@@@0@AAV10@PBD@Z$3
__unwindtable$??$?6U?$char_traits@D@std@@@std@@YAAAV?$basic_ostream@DU?$char_traits@D@std@@@0@AAV10@PBD@Z DD 0ffffffffH
	DD	FLAT:__unwindfunclet$??$?6U?$char_traits@D@std@@@std@@YAAAV?$basic_ostream@DU?$char_traits@D@std@@@0@AAV10@PBD@Z$2
	DD	00H
	DD	00H
	DD	00H
	DD	00H
__ehfuncinfo$??$?6U?$char_traits@D@std@@@std@@YAAAV?$basic_ostream@DU?$char_traits@D@std@@@0@AAV10@PBD@Z DD 019930522H
	DD	03H
	DD	FLAT:__unwindtable$??$?6U?$char_traits@D@std@@@std@@YAAAV?$basic_ostream@DU?$char_traits@D@std@@@0@AAV10@PBD@Z
	DD	01H
	DD	FLAT:__tryblocktable$??$?6U?$char_traits@D@std@@@std@@YAAAV?$basic_ostream@DU?$char_traits@D@std@@@0@AAV10@PBD@Z
	DD	2 DUP(00H)
	DD	00H
	DD	01H
xdata$x	ENDS
;	COMDAT voltbl
voltbl	SEGMENT
_volmd	DB	09H
voltbl	ENDS
;	COMDAT xdata$x
xdata$x	SEGMENT
__ehfuncinfo$?_Tidy_deallocate@?$basic_string@DU?$char_traits@D@std@@V?$allocator@D@2@@std@@AAEXXZ DD 019930522H
	DD	00H
	DD	00H
	DD	2 DUP(00H)
	DD	2 DUP(00H)
	DD	00H
	DD	05H
xdata$x	ENDS
;	COMDAT voltbl
voltbl	SEGMENT
_volmd	DB	024H
	DB	090H
voltbl	ENDS
;	COMDAT voltbl
voltbl	SEGMENT
_volmd	DB	024H
	DB	076H
voltbl	ENDS
; Function compile flags: /Odt
;	COMDAT __JustMyCode_Default
_TEXT	SEGMENT
__JustMyCode_Default PROC				; COMDAT
  00000	55		 push	 ebp
  00001	8b ec		 mov	 ebp, esp
  00003	5d		 pop	 ebp
  00004	c3		 ret	 0
__JustMyCode_Default ENDP
_TEXT	ENDS
; Function compile flags: /Odtp /RTCsu /ZI
; File D:\Soft\Microsoft Visual Studio\VC\Tools\MSVC\14.33.31629\include\xmemory
;	COMDAT ?deallocate@?$_Default_allocator_traits@V?$allocator@U_Container_proxy@std@@@std@@@std@@SAXAAV?$allocator@U_Container_proxy@std@@@2@QAU_Container_proxy@2@I@Z
_TEXT	SEGMENT
__Al$ = 8						; size = 4
__Ptr$ = 12						; size = 4
__Count$ = 16						; size = 4
?deallocate@?$_Default_allocator_traits@V?$allocator@U_Container_proxy@std@@@std@@@std@@SAXAAV?$allocator@U_Container_proxy@std@@@2@QAU_Container_proxy@2@I@Z PROC ; std::_Default_allocator_traits<std::allocator<std::_Container_proxy> >::deallocate, COMDAT

; 661  :     static _CONSTEXPR20 void deallocate(_Alloc& _Al, const pointer _Ptr, const size_type _Count) {

  00000	55		 push	 ebp
  00001	8b ec		 mov	 ebp, esp
  00003	81 ec c0 00 00
	00		 sub	 esp, 192		; 000000c0H
  00009	53		 push	 ebx
  0000a	56		 push	 esi
  0000b	57		 push	 edi
  0000c	8b fd		 mov	 edi, ebp
  0000e	33 c9		 xor	 ecx, ecx
  00010	b8 cc cc cc cc	 mov	 eax, -858993460		; ccccccccH
  00015	f3 ab		 rep stosd
  00017	b9 00 00 00 00	 mov	 ecx, OFFSET __4741D85A_xmemory
  0001c	e8 00 00 00 00	 call	 @__CheckForDebuggerJustMyCode@4

; 662  :         // no overflow check on the following multiply; we assume _Allocate did that check
; 663  : #if _HAS_CXX20 // TRANSITION, GH-1532
; 664  :         if (_STD is_constant_evaluated()) {
; 665  :             _Al.deallocate(_Ptr, _Count);
; 666  :         } else
; 667  : #endif // _HAS_CXX20
; 668  :         {
; 669  :             (void) _Al;
; 670  :             _Deallocate<_New_alignof<value_type>>(_Ptr, sizeof(value_type) * _Count);

  00021	8b 45 10	 mov	 eax, DWORD PTR __Count$[ebp]
  00024	c1 e0 03	 shl	 eax, 3
  00027	50		 push	 eax
  00028	8b 4d 0c	 mov	 ecx, DWORD PTR __Ptr$[ebp]
  0002b	51		 push	 ecx
  0002c	e8 00 00 00 00	 call	 ??$_Deallocate@$07$0A@@std@@YAXPAXI@Z ; std::_Deallocate<8,0>
  00031	83 c4 08	 add	 esp, 8

; 671  :         }
; 672  :     }

  00034	5f		 pop	 edi
  00035	5e		 pop	 esi
  00036	5b		 pop	 ebx
  00037	81 c4 c0 00 00
	00		 add	 esp, 192		; 000000c0H
  0003d	3b ec		 cmp	 ebp, esp
  0003f	e8 00 00 00 00	 call	 __RTC_CheckEsp
  00044	8b e5		 mov	 esp, ebp
  00046	5d		 pop	 ebp
  00047	c3		 ret	 0
?deallocate@?$_Default_allocator_traits@V?$allocator@U_Container_proxy@std@@@std@@@std@@SAXAAV?$allocator@U_Container_proxy@std@@@2@QAU_Container_proxy@2@I@Z ENDP ; std::_Default_allocator_traits<std::allocator<std::_Container_proxy> >::deallocate
_TEXT	ENDS
; Function compile flags: /Odtp /RTCsu /ZI
; File D:\Soft\Microsoft Visual Studio\VC\Tools\MSVC\14.33.31629\include\xmemory
;	COMDAT ??$_Deallocate_plain@V?$allocator@U_Container_proxy@std@@@std@@@std@@YAXAAV?$allocator@U_Container_proxy@std@@@0@QAU_Container_proxy@0@@Z
_TEXT	SEGMENT
__$EHRec$ = -12						; size = 12
__Al$ = 8						; size = 4
__Ptr$ = 12						; size = 4
??$_Deallocate_plain@V?$allocator@U_Container_proxy@std@@@std@@@std@@YAXAAV?$allocator@U_Container_proxy@std@@@0@QAU_Container_proxy@0@@Z PROC ; std::_Deallocate_plain<std::allocator<std::_Container_proxy> >, COMDAT

; 977  : _CONSTEXPR20 void _Deallocate_plain(_Alloc& _Al, typename _Alloc::value_type* const _Ptr) noexcept {

  00000	55		 push	 ebp
  00001	8b ec		 mov	 ebp, esp
  00003	6a ff		 push	 -1
  00005	68 00 00 00 00	 push	 __ehhandler$??$_Deallocate_plain@V?$allocator@U_Container_proxy@std@@@std@@@std@@YAXAAV?$allocator@U_Container_proxy@std@@@0@QAU_Container_proxy@0@@Z
  0000a	64 a1 00 00 00
	00		 mov	 eax, DWORD PTR fs:0
  00010	50		 push	 eax
  00011	81 ec c0 00 00
	00		 sub	 esp, 192		; 000000c0H
  00017	53		 push	 ebx
  00018	56		 push	 esi
  00019	57		 push	 edi
  0001a	8d 7d f4	 lea	 edi, DWORD PTR [ebp-12]
  0001d	33 c9		 xor	 ecx, ecx
  0001f	b8 cc cc cc cc	 mov	 eax, -858993460		; ccccccccH
  00024	f3 ab		 rep stosd
  00026	a1 00 00 00 00	 mov	 eax, DWORD PTR ___security_cookie
  0002b	33 c5		 xor	 eax, ebp
  0002d	50		 push	 eax
  0002e	8d 45 f4	 lea	 eax, DWORD PTR __$EHRec$[ebp]
  00031	64 a3 00 00 00
	00		 mov	 DWORD PTR fs:0, eax
  00037	b9 00 00 00 00	 mov	 ecx, OFFSET __4741D85A_xmemory
  0003c	e8 00 00 00 00	 call	 @__CheckForDebuggerJustMyCode@4

; 978  :     // deallocate a plain pointer using an allocator
; 979  :     using _Alloc_traits = allocator_traits<_Alloc>;
; 980  :     if constexpr (is_same_v<_Alloc_ptr_t<_Alloc>, typename _Alloc::value_type*>) {
; 981  :         _Alloc_traits::deallocate(_Al, _Ptr, 1);

  00041	6a 01		 push	 1
  00043	8b 45 0c	 mov	 eax, DWORD PTR __Ptr$[ebp]
  00046	50		 push	 eax
  00047	8b 4d 08	 mov	 ecx, DWORD PTR __Al$[ebp]
  0004a	51		 push	 ecx
  0004b	e8 00 00 00 00	 call	 ?deallocate@?$_Default_allocator_traits@V?$allocator@U_Container_proxy@std@@@std@@@std@@SAXAAV?$allocator@U_Container_proxy@std@@@2@QAU_Container_proxy@2@I@Z ; std::_Default_allocator_traits<std::allocator<std::_Container_proxy> >::deallocate
  00050	83 c4 0c	 add	 esp, 12			; 0000000cH

; 982  :     } else {
; 983  :         using _Ptr_traits = pointer_traits<_Alloc_ptr_t<_Alloc>>;
; 984  :         _Alloc_traits::deallocate(_Al, _Ptr_traits::pointer_to(*_Ptr), 1);
; 985  :     }
; 986  : }

  00053	8b 4d f4	 mov	 ecx, DWORD PTR __$EHRec$[ebp]
  00056	64 89 0d 00 00
	00 00		 mov	 DWORD PTR fs:0, ecx
  0005d	59		 pop	 ecx
  0005e	5f		 pop	 edi
  0005f	5e		 pop	 esi
  00060	5b		 pop	 ebx
  00061	81 c4 cc 00 00
	00		 add	 esp, 204		; 000000ccH
  00067	3b ec		 cmp	 ebp, esp
  00069	e8 00 00 00 00	 call	 __RTC_CheckEsp
  0006e	8b e5		 mov	 esp, ebp
  00070	5d		 pop	 ebp
  00071	c3		 ret	 0
  00072	cc		 int	 3
  00073	cc		 int	 3
  00074	cc		 int	 3
  00075	cc		 int	 3
  00076	cc		 int	 3
_TEXT	ENDS
;	COMDAT text$x
text$x	SEGMENT
__ehhandler$??$_Deallocate_plain@V?$allocator@U_Container_proxy@std@@@std@@@std@@YAXAAV?$allocator@U_Container_proxy@std@@@0@QAU_Container_proxy@0@@Z:
  00000	90		 npad	 1
  00001	90		 npad	 1
  00002	8b 54 24 08	 mov	 edx, DWORD PTR [esp+8]
  00006	8d 42 0c	 lea	 eax, DWORD PTR [edx+12]
  00009	8b 8a 30 ff ff
	ff		 mov	 ecx, DWORD PTR [edx-208]
  0000f	33 c8		 xor	 ecx, eax
  00011	e8 00 00 00 00	 call	 @__security_check_cookie@4
  00016	b8 00 00 00 00	 mov	 eax, OFFSET __ehfuncinfo$??$_Deallocate_plain@V?$allocator@U_Container_proxy@std@@@std@@@std@@YAXAAV?$allocator@U_Container_proxy@std@@@0@QAU_Container_proxy@0@@Z
  0001b	e9 00 00 00 00	 jmp	 ___CxxFrameHandler3
text$x	ENDS
??$_Deallocate_plain@V?$allocator@U_Container_proxy@std@@@std@@@std@@YAXAAV?$allocator@U_Container_proxy@std@@@0@QAU_Container_proxy@0@@Z ENDP ; std::_Deallocate_plain<std::allocator<std::_Container_proxy> >
; Function compile flags: /Odtp /RTCsu /ZI
; File D:\Soft\Microsoft Visual Studio\VC\Tools\MSVC\14.33.31629\include\ostream
;	COMDAT ??Bsentry@?$basic_ostream@DU?$char_traits@D@std@@@std@@QBE_NXZ
_TEXT	SEGMENT
_this$ = -8						; size = 4
??Bsentry@?$basic_ostream@DU?$char_traits@D@std@@@std@@QBE_NXZ PROC ; std::basic_ostream<char,std::char_traits<char> >::sentry::operator bool, COMDAT
; _this$ = ecx

; 123  :         explicit __CLR_OR_THIS_CALL operator bool() const {

  00000	55		 push	 ebp
  00001	8b ec		 mov	 ebp, esp
  00003	81 ec cc 00 00
	00		 sub	 esp, 204		; 000000ccH
  00009	53		 push	 ebx
  0000a	56		 push	 esi
  0000b	57		 push	 edi
  0000c	51		 push	 ecx
  0000d	8d 7d f4	 lea	 edi, DWORD PTR [ebp-12]
  00010	b9 03 00 00 00	 mov	 ecx, 3
  00015	b8 cc cc cc cc	 mov	 eax, -858993460		; ccccccccH
  0001a	f3 ab		 rep stosd
  0001c	59		 pop	 ecx
  0001d	89 4d f8	 mov	 DWORD PTR _this$[ebp], ecx
  00020	b9 00 00 00 00	 mov	 ecx, OFFSET __FFBCF033_ostream
  00025	e8 00 00 00 00	 call	 @__CheckForDebuggerJustMyCode@4

; 124  :             return _Ok;

  0002a	8b 45 f8	 mov	 eax, DWORD PTR _this$[ebp]
  0002d	8a 40 04	 mov	 al, BYTE PTR [eax+4]

; 125  :         }

  00030	5f		 pop	 edi
  00031	5e		 pop	 esi
  00032	5b		 pop	 ebx
  00033	81 c4 cc 00 00
	00		 add	 esp, 204		; 000000ccH
  00039	3b ec		 cmp	 ebp, esp
  0003b	e8 00 00 00 00	 call	 __RTC_CheckEsp
  00040	8b e5		 mov	 esp, ebp
  00042	5d		 pop	 ebp
  00043	c3		 ret	 0
??Bsentry@?$basic_ostream@DU?$char_traits@D@std@@@std@@QBE_NXZ ENDP ; std::basic_ostream<char,std::char_traits<char> >::sentry::operator bool
_TEXT	ENDS
; Function compile flags: /Odtp /RTCsu /ZI
; File D:\Soft\Microsoft Visual Studio\VC\Tools\MSVC\14.33.31629\include\ostream
;	COMDAT ??1sentry@?$basic_ostream@DU?$char_traits@D@std@@@std@@QAE@XZ
_TEXT	SEGMENT
tv72 = -229						; size = 1
__Zero_uncaught_exceptions$ = -29			; size = 1
_this$ = -20						; size = 4
__$EHRec$ = -12						; size = 12
??1sentry@?$basic_ostream@DU?$char_traits@D@std@@@std@@QAE@XZ PROC ; std::basic_ostream<char,std::char_traits<char> >::sentry::~sentry, COMDAT
; _this$ = ecx

; 108  :         __CLR_OR_THIS_CALL ~sentry() noexcept {

  00000	55		 push	 ebp
  00001	8b ec		 mov	 ebp, esp
  00003	6a ff		 push	 -1
  00005	68 00 00 00 00	 push	 __ehhandler$??1sentry@?$basic_ostream@DU?$char_traits@D@std@@@std@@QAE@XZ
  0000a	64 a1 00 00 00
	00		 mov	 eax, DWORD PTR fs:0
  00010	50		 push	 eax
  00011	81 ec dc 00 00
	00		 sub	 esp, 220		; 000000dcH
  00017	53		 push	 ebx
  00018	56		 push	 esi
  00019	57		 push	 edi
  0001a	51		 push	 ecx
  0001b	8d 7d d8	 lea	 edi, DWORD PTR [ebp-40]
  0001e	b9 07 00 00 00	 mov	 ecx, 7
  00023	b8 cc cc cc cc	 mov	 eax, -858993460		; ccccccccH
  00028	f3 ab		 rep stosd
  0002a	59		 pop	 ecx
  0002b	a1 00 00 00 00	 mov	 eax, DWORD PTR ___security_cookie
  00030	33 c5		 xor	 eax, ebp
  00032	50		 push	 eax
  00033	8d 45 f4	 lea	 eax, DWORD PTR __$EHRec$[ebp]
  00036	64 a3 00 00 00
	00		 mov	 DWORD PTR fs:0, eax
  0003c	89 4d ec	 mov	 DWORD PTR _this$[ebp], ecx
  0003f	b9 00 00 00 00	 mov	 ecx, OFFSET __FFBCF033_ostream
  00044	e8 00 00 00 00	 call	 @__CheckForDebuggerJustMyCode@4

; 109  : #if !_HAS_EXCEPTIONS
; 110  :             const bool _Zero_uncaught_exceptions = true;
; 111  : #elif _HAS_DEPRECATED_UNCAUGHT_EXCEPTION
; 112  :             const bool _Zero_uncaught_exceptions = !_STD uncaught_exception(); // TRANSITION, ArchivedOS-12000909

  00049	e8 00 00 00 00	 call	 ?uncaught_exception@std@@YA_NXZ ; std::uncaught_exception
  0004e	0f b6 c0	 movzx	 eax, al
  00051	85 c0		 test	 eax, eax
  00053	75 09		 jne	 SHORT $LN4@sentry
  00055	c6 85 1b ff ff
	ff 01		 mov	 BYTE PTR tv72[ebp], 1
  0005c	eb 07		 jmp	 SHORT $LN5@sentry
$LN4@sentry:
  0005e	c6 85 1b ff ff
	ff 00		 mov	 BYTE PTR tv72[ebp], 0
$LN5@sentry:
  00065	8a 8d 1b ff ff
	ff		 mov	 cl, BYTE PTR tv72[ebp]
  0006b	88 4d e3	 mov	 BYTE PTR __Zero_uncaught_exceptions$[ebp], cl

; 113  : #else // ^^^ _HAS_DEPRECATED_UNCAUGHT_EXCEPTION / !_HAS_DEPRECATED_UNCAUGHT_EXCEPTION vvv
; 114  :             const bool _Zero_uncaught_exceptions = _STD uncaught_exceptions() == 0;
; 115  : #endif // !_HAS_DEPRECATED_UNCAUGHT_EXCEPTION
; 116  : 
; 117  :             if (_Zero_uncaught_exceptions) {

  0006e	0f b6 45 e3	 movzx	 eax, BYTE PTR __Zero_uncaught_exceptions$[ebp]
  00072	85 c0		 test	 eax, eax
  00074	74 14		 je	 SHORT $LN1@sentry

; 118  :                 this->_Myostr._Osfx();

  00076	8b f4		 mov	 esi, esp
  00078	8b 45 ec	 mov	 eax, DWORD PTR _this$[ebp]
  0007b	8b 08		 mov	 ecx, DWORD PTR [eax]
  0007d	ff 15 00 00 00
	00		 call	 DWORD PTR __imp_?_Osfx@?$basic_ostream@DU?$char_traits@D@std@@@std@@QAEXXZ
  00083	3b f4		 cmp	 esi, esp
  00085	e8 00 00 00 00	 call	 __RTC_CheckEsp
$LN1@sentry:

; 119  :             }
; 120  :         }

  0008a	8b 4d ec	 mov	 ecx, DWORD PTR _this$[ebp]
  0008d	e8 00 00 00 00	 call	 ??1_Sentry_base@?$basic_ostream@DU?$char_traits@D@std@@@std@@QAE@XZ ; std::basic_ostream<char,std::char_traits<char> >::_Sentry_base::~_Sentry_base
  00092	8b 4d f4	 mov	 ecx, DWORD PTR __$EHRec$[ebp]
  00095	64 89 0d 00 00
	00 00		 mov	 DWORD PTR fs:0, ecx
  0009c	59		 pop	 ecx
  0009d	5f		 pop	 edi
  0009e	5e		 pop	 esi
  0009f	5b		 pop	 ebx
  000a0	81 c4 e8 00 00
	00		 add	 esp, 232		; 000000e8H
  000a6	3b ec		 cmp	 ebp, esp
  000a8	e8 00 00 00 00	 call	 __RTC_CheckEsp
  000ad	8b e5		 mov	 esp, ebp
  000af	5d		 pop	 ebp
  000b0	c3		 ret	 0
  000b1	cc		 int	 3
  000b2	cc		 int	 3
  000b3	cc		 int	 3
  000b4	cc		 int	 3
  000b5	cc		 int	 3
_TEXT	ENDS
;	COMDAT text$x
text$x	SEGMENT
__ehhandler$??1sentry@?$basic_ostream@DU?$char_traits@D@std@@@std@@QAE@XZ:
  00000	90		 npad	 1
  00001	90		 npad	 1
  00002	8b 54 24 08	 mov	 edx, DWORD PTR [esp+8]
  00006	8d 42 0c	 lea	 eax, DWORD PTR [edx+12]
  00009	8b 8a 14 ff ff
	ff		 mov	 ecx, DWORD PTR [edx-236]
  0000f	33 c8		 xor	 ecx, eax
  00011	e8 00 00 00 00	 call	 @__security_check_cookie@4
  00016	b8 00 00 00 00	 mov	 eax, OFFSET __ehfuncinfo$??1sentry@?$basic_ostream@DU?$char_traits@D@std@@@std@@QAE@XZ
  0001b	e9 00 00 00 00	 jmp	 ___CxxFrameHandler3
text$x	ENDS
??1sentry@?$basic_ostream@DU?$char_traits@D@std@@@std@@QAE@XZ ENDP ; std::basic_ostream<char,std::char_traits<char> >::sentry::~sentry
; Function compile flags: /Odtp /RTCsu /ZI
; File D:\Soft\Microsoft Visual Studio\VC\Tools\MSVC\14.33.31629\include\ostream
;	COMDAT ??0sentry@?$basic_ostream@DU?$char_traits@D@std@@@std@@QAE@AAV12@@Z
_TEXT	SEGMENT
__Tied$ = -32						; size = 4
_this$ = -20						; size = 4
__$EHRec$ = -12						; size = 12
__Ostr$ = 8						; size = 4
??0sentry@?$basic_ostream@DU?$char_traits@D@std@@@std@@QAE@AAV12@@Z PROC ; std::basic_ostream<char,std::char_traits<char> >::sentry::sentry, COMDAT
; _this$ = ecx

; 91   :         explicit __CLR_OR_THIS_CALL sentry(basic_ostream& _Ostr) : _Sentry_base(_Ostr) {

  00000	55		 push	 ebp
  00001	8b ec		 mov	 ebp, esp
  00003	6a ff		 push	 -1
  00005	68 00 00 00 00	 push	 __ehhandler$??0sentry@?$basic_ostream@DU?$char_traits@D@std@@@std@@QAE@AAV12@@Z
  0000a	64 a1 00 00 00
	00		 mov	 eax, DWORD PTR fs:0
  00010	50		 push	 eax
  00011	81 ec d8 00 00
	00		 sub	 esp, 216		; 000000d8H
  00017	53		 push	 ebx
  00018	56		 push	 esi
  00019	57		 push	 edi
  0001a	51		 push	 ecx
  0001b	8d 7d dc	 lea	 edi, DWORD PTR [ebp-36]
  0001e	b9 06 00 00 00	 mov	 ecx, 6
  00023	b8 cc cc cc cc	 mov	 eax, -858993460		; ccccccccH
  00028	f3 ab		 rep stosd
  0002a	59		 pop	 ecx
  0002b	a1 00 00 00 00	 mov	 eax, DWORD PTR ___security_cookie
  00030	33 c5		 xor	 eax, ebp
  00032	50		 push	 eax
  00033	8d 45 f4	 lea	 eax, DWORD PTR __$EHRec$[ebp]
  00036	64 a3 00 00 00
	00		 mov	 DWORD PTR fs:0, eax
  0003c	89 4d ec	 mov	 DWORD PTR _this$[ebp], ecx
  0003f	b9 00 00 00 00	 mov	 ecx, OFFSET __FFBCF033_ostream
  00044	e8 00 00 00 00	 call	 @__CheckForDebuggerJustMyCode@4
  00049	8b 45 08	 mov	 eax, DWORD PTR __Ostr$[ebp]
  0004c	50		 push	 eax
  0004d	8b 4d ec	 mov	 ecx, DWORD PTR _this$[ebp]
  00050	e8 00 00 00 00	 call	 ??0_Sentry_base@?$basic_ostream@DU?$char_traits@D@std@@@std@@QAE@AAV12@@Z ; std::basic_ostream<char,std::char_traits<char> >::_Sentry_base::_Sentry_base
  00055	c7 45 fc 00 00
	00 00		 mov	 DWORD PTR __$EHRec$[ebp+8], 0

; 92   :             if (!_Ostr.good()) {

  0005c	8b 45 08	 mov	 eax, DWORD PTR __Ostr$[ebp]
  0005f	8b 08		 mov	 ecx, DWORD PTR [eax]
  00061	8b 55 08	 mov	 edx, DWORD PTR __Ostr$[ebp]
  00064	03 51 04	 add	 edx, DWORD PTR [ecx+4]
  00067	8b f4		 mov	 esi, esp
  00069	8b ca		 mov	 ecx, edx
  0006b	ff 15 00 00 00
	00		 call	 DWORD PTR __imp_?good@ios_base@std@@QBE_NXZ
  00071	3b f4		 cmp	 esi, esp
  00073	e8 00 00 00 00	 call	 __RTC_CheckEsp
  00078	0f b6 c0	 movzx	 eax, al
  0007b	85 c0		 test	 eax, eax
  0007d	75 09		 jne	 SHORT $LN2@sentry

; 93   :                 _Ok = false;

  0007f	8b 45 ec	 mov	 eax, DWORD PTR _this$[ebp]
  00082	c6 40 04 00	 mov	 BYTE PTR [eax+4], 0

; 94   :                 return;

  00086	eb 6a		 jmp	 SHORT $LN1@sentry
$LN2@sentry:

; 95   :             }
; 96   : 
; 97   :             const auto _Tied = _Ostr.tie();

  00088	8b 45 08	 mov	 eax, DWORD PTR __Ostr$[ebp]
  0008b	8b 08		 mov	 ecx, DWORD PTR [eax]
  0008d	8b 55 08	 mov	 edx, DWORD PTR __Ostr$[ebp]
  00090	03 51 04	 add	 edx, DWORD PTR [ecx+4]
  00093	8b f4		 mov	 esi, esp
  00095	8b ca		 mov	 ecx, edx
  00097	ff 15 00 00 00
	00		 call	 DWORD PTR __imp_?tie@?$basic_ios@DU?$char_traits@D@std@@@std@@QBEPAV?$basic_ostream@DU?$char_traits@D@std@@@2@XZ
  0009d	3b f4		 cmp	 esi, esp
  0009f	e8 00 00 00 00	 call	 __RTC_CheckEsp
  000a4	89 45 e0	 mov	 DWORD PTR __Tied$[ebp], eax

; 98   :             if (!_Tied || _Tied == &_Ostr) {

  000a7	83 7d e0 00	 cmp	 DWORD PTR __Tied$[ebp], 0
  000ab	74 08		 je	 SHORT $LN4@sentry
  000ad	8b 45 e0	 mov	 eax, DWORD PTR __Tied$[ebp]
  000b0	3b 45 08	 cmp	 eax, DWORD PTR __Ostr$[ebp]
  000b3	75 09		 jne	 SHORT $LN3@sentry
$LN4@sentry:

; 99   :                 _Ok = true;

  000b5	8b 45 ec	 mov	 eax, DWORD PTR _this$[ebp]
  000b8	c6 40 04 01	 mov	 BYTE PTR [eax+4], 1

; 100  :                 return;

  000bc	eb 34		 jmp	 SHORT $LN1@sentry
$LN3@sentry:

; 101  :             }
; 102  : 
; 103  :             _Tied->flush();

  000be	8b f4		 mov	 esi, esp
  000c0	8b 4d e0	 mov	 ecx, DWORD PTR __Tied$[ebp]
  000c3	ff 15 00 00 00
	00		 call	 DWORD PTR __imp_?flush@?$basic_ostream@DU?$char_traits@D@std@@@std@@QAEAAV12@XZ
  000c9	3b f4		 cmp	 esi, esp
  000cb	e8 00 00 00 00	 call	 __RTC_CheckEsp

; 104  :             _Ok = _Ostr.good(); // store test only after flushing tie

  000d0	8b 45 08	 mov	 eax, DWORD PTR __Ostr$[ebp]
  000d3	8b 08		 mov	 ecx, DWORD PTR [eax]
  000d5	8b 55 08	 mov	 edx, DWORD PTR __Ostr$[ebp]
  000d8	03 51 04	 add	 edx, DWORD PTR [ecx+4]
  000db	8b f4		 mov	 esi, esp
  000dd	8b ca		 mov	 ecx, edx
  000df	ff 15 00 00 00
	00		 call	 DWORD PTR __imp_?good@ios_base@std@@QBE_NXZ
  000e5	3b f4		 cmp	 esi, esp
  000e7	e8 00 00 00 00	 call	 __RTC_CheckEsp
  000ec	8b 4d ec	 mov	 ecx, DWORD PTR _this$[ebp]
  000ef	88 41 04	 mov	 BYTE PTR [ecx+4], al
$LN1@sentry:

; 105  :         }

  000f2	c7 45 fc ff ff
	ff ff		 mov	 DWORD PTR __$EHRec$[ebp+8], -1
  000f9	8b 45 ec	 mov	 eax, DWORD PTR _this$[ebp]
  000fc	8b 4d f4	 mov	 ecx, DWORD PTR __$EHRec$[ebp]
  000ff	64 89 0d 00 00
	00 00		 mov	 DWORD PTR fs:0, ecx
  00106	59		 pop	 ecx
  00107	5f		 pop	 edi
  00108	5e		 pop	 esi
  00109	5b		 pop	 ebx
  0010a	81 c4 e4 00 00
	00		 add	 esp, 228		; 000000e4H
  00110	3b ec		 cmp	 ebp, esp
  00112	e8 00 00 00 00	 call	 __RTC_CheckEsp
  00117	8b e5		 mov	 esp, ebp
  00119	5d		 pop	 ebp
  0011a	c2 04 00	 ret	 4
_TEXT	ENDS
;	COMDAT text$x
text$x	SEGMENT
__unwindfunclet$??0sentry@?$basic_ostream@DU?$char_traits@D@std@@@std@@QAE@AAV12@@Z$0:
  00000	8b 4d ec	 mov	 ecx, DWORD PTR _this$[ebp]
  00003	e9 00 00 00 00	 jmp	 ??1_Sentry_base@?$basic_ostream@DU?$char_traits@D@std@@@std@@QAE@XZ ; std::basic_ostream<char,std::char_traits<char> >::_Sentry_base::~_Sentry_base
  00008	cc		 int	 3
  00009	cc		 int	 3
  0000a	cc		 int	 3
  0000b	cc		 int	 3
  0000c	cc		 int	 3
__ehhandler$??0sentry@?$basic_ostream@DU?$char_traits@D@std@@@std@@QAE@AAV12@@Z:
  0000d	90		 npad	 1
  0000e	90		 npad	 1
  0000f	8b 54 24 08	 mov	 edx, DWORD PTR [esp+8]
  00013	8d 42 0c	 lea	 eax, DWORD PTR [edx+12]
  00016	8b 8a 18 ff ff
	ff		 mov	 ecx, DWORD PTR [edx-232]
  0001c	33 c8		 xor	 ecx, eax
  0001e	e8 00 00 00 00	 call	 @__security_check_cookie@4
  00023	b8 00 00 00 00	 mov	 eax, OFFSET __ehfuncinfo$??0sentry@?$basic_ostream@DU?$char_traits@D@std@@@std@@QAE@AAV12@@Z
  00028	e9 00 00 00 00	 jmp	 ___CxxFrameHandler3
text$x	ENDS
??0sentry@?$basic_ostream@DU?$char_traits@D@std@@@std@@QAE@AAV12@@Z ENDP ; std::basic_ostream<char,std::char_traits<char> >::sentry::sentry
; Function compile flags: /Odtp /RTCsu /ZI
; File D:\Soft\Microsoft Visual Studio\VC\Tools\MSVC\14.33.31629\include\ostream
;	COMDAT ??1_Sentry_base@?$basic_ostream@DU?$char_traits@D@std@@@std@@QAE@XZ
_TEXT	SEGMENT
tv72 = -232						; size = 4
__Rdbuf$ = -32						; size = 4
_this$ = -20						; size = 4
__$EHRec$ = -12						; size = 12
??1_Sentry_base@?$basic_ostream@DU?$char_traits@D@std@@@std@@QAE@XZ PROC ; std::basic_ostream<char,std::char_traits<char> >::_Sentry_base::~_Sentry_base, COMDAT
; _this$ = ecx

; 77   :         __CLR_OR_THIS_CALL ~_Sentry_base() noexcept { // destroy after unlocking

  00000	55		 push	 ebp
  00001	8b ec		 mov	 ebp, esp
  00003	6a ff		 push	 -1
  00005	68 00 00 00 00	 push	 __ehhandler$??1_Sentry_base@?$basic_ostream@DU?$char_traits@D@std@@@std@@QAE@XZ
  0000a	64 a1 00 00 00
	00		 mov	 eax, DWORD PTR fs:0
  00010	50		 push	 eax
  00011	81 ec dc 00 00
	00		 sub	 esp, 220		; 000000dcH
  00017	53		 push	 ebx
  00018	56		 push	 esi
  00019	57		 push	 edi
  0001a	51		 push	 ecx
  0001b	8d 7d d8	 lea	 edi, DWORD PTR [ebp-40]
  0001e	b9 07 00 00 00	 mov	 ecx, 7
  00023	b8 cc cc cc cc	 mov	 eax, -858993460		; ccccccccH
  00028	f3 ab		 rep stosd
  0002a	59		 pop	 ecx
  0002b	a1 00 00 00 00	 mov	 eax, DWORD PTR ___security_cookie
  00030	33 c5		 xor	 eax, ebp
  00032	50		 push	 eax
  00033	8d 45 f4	 lea	 eax, DWORD PTR __$EHRec$[ebp]
  00036	64 a3 00 00 00
	00		 mov	 DWORD PTR fs:0, eax
  0003c	89 4d ec	 mov	 DWORD PTR _this$[ebp], ecx
  0003f	b9 00 00 00 00	 mov	 ecx, OFFSET __FFBCF033_ostream
  00044	e8 00 00 00 00	 call	 @__CheckForDebuggerJustMyCode@4

; 78   :             const auto _Rdbuf = _Myostr.rdbuf();

  00049	8b 45 ec	 mov	 eax, DWORD PTR _this$[ebp]
  0004c	8b 08		 mov	 ecx, DWORD PTR [eax]
  0004e	89 8d 18 ff ff
	ff		 mov	 DWORD PTR tv72[ebp], ecx
  00054	8b 95 18 ff ff
	ff		 mov	 edx, DWORD PTR tv72[ebp]
  0005a	8b 02		 mov	 eax, DWORD PTR [edx]
  0005c	8b 8d 18 ff ff
	ff		 mov	 ecx, DWORD PTR tv72[ebp]
  00062	03 48 04	 add	 ecx, DWORD PTR [eax+4]
  00065	8b f4		 mov	 esi, esp
  00067	ff 15 00 00 00
	00		 call	 DWORD PTR __imp_?rdbuf@?$basic_ios@DU?$char_traits@D@std@@@std@@QBEPAV?$basic_streambuf@DU?$char_traits@D@std@@@2@XZ
  0006d	3b f4		 cmp	 esi, esp
  0006f	e8 00 00 00 00	 call	 __RTC_CheckEsp
  00074	89 45 e0	 mov	 DWORD PTR __Rdbuf$[ebp], eax

; 79   :             if (_Rdbuf) {

  00077	83 7d e0 00	 cmp	 DWORD PTR __Rdbuf$[ebp], 0
  0007b	74 16		 je	 SHORT $LN3@Sentry_bas

; 80   :                 _Rdbuf->_Unlock();

  0007d	8b 45 e0	 mov	 eax, DWORD PTR __Rdbuf$[ebp]
  00080	8b 10		 mov	 edx, DWORD PTR [eax]
  00082	8b f4		 mov	 esi, esp
  00084	8b 4d e0	 mov	 ecx, DWORD PTR __Rdbuf$[ebp]
  00087	8b 42 08	 mov	 eax, DWORD PTR [edx+8]
  0008a	ff d0		 call	 eax
  0008c	3b f4		 cmp	 esi, esp
  0008e	e8 00 00 00 00	 call	 __RTC_CheckEsp
$LN3@Sentry_bas:

; 81   :             }
; 82   :         }

  00093	8b 4d f4	 mov	 ecx, DWORD PTR __$EHRec$[ebp]
  00096	64 89 0d 00 00
	00 00		 mov	 DWORD PTR fs:0, ecx
  0009d	59		 pop	 ecx
  0009e	5f		 pop	 edi
  0009f	5e		 pop	 esi
  000a0	5b		 pop	 ebx
  000a1	81 c4 e8 00 00
	00		 add	 esp, 232		; 000000e8H
  000a7	3b ec		 cmp	 ebp, esp
  000a9	e8 00 00 00 00	 call	 __RTC_CheckEsp
  000ae	8b e5		 mov	 esp, ebp
  000b0	5d		 pop	 ebp
  000b1	c3		 ret	 0
  000b2	cc		 int	 3
  000b3	cc		 int	 3
  000b4	cc		 int	 3
  000b5	cc		 int	 3
  000b6	cc		 int	 3
_TEXT	ENDS
;	COMDAT text$x
text$x	SEGMENT
__ehhandler$??1_Sentry_base@?$basic_ostream@DU?$char_traits@D@std@@@std@@QAE@XZ:
  00000	90		 npad	 1
  00001	90		 npad	 1
  00002	8b 54 24 08	 mov	 edx, DWORD PTR [esp+8]
  00006	8d 42 0c	 lea	 eax, DWORD PTR [edx+12]
  00009	8b 8a 14 ff ff
	ff		 mov	 ecx, DWORD PTR [edx-236]
  0000f	33 c8		 xor	 ecx, eax
  00011	e8 00 00 00 00	 call	 @__security_check_cookie@4
  00016	b8 00 00 00 00	 mov	 eax, OFFSET __ehfuncinfo$??1_Sentry_base@?$basic_ostream@DU?$char_traits@D@std@@@std@@QAE@XZ
  0001b	e9 00 00 00 00	 jmp	 ___CxxFrameHandler3
text$x	ENDS
??1_Sentry_base@?$basic_ostream@DU?$char_traits@D@std@@@std@@QAE@XZ ENDP ; std::basic_ostream<char,std::char_traits<char> >::_Sentry_base::~_Sentry_base
; Function compile flags: /Odtp /RTCsu /ZI
; File D:\Soft\Microsoft Visual Studio\VC\Tools\MSVC\14.33.31629\include\ostream
;	COMDAT ??0_Sentry_base@?$basic_ostream@DU?$char_traits@D@std@@@std@@QAE@AAV12@@Z
_TEXT	SEGMENT
tv73 = -220						; size = 4
__Rdbuf$ = -20						; size = 4
_this$ = -8						; size = 4
__Ostr$ = 8						; size = 4
??0_Sentry_base@?$basic_ostream@DU?$char_traits@D@std@@@std@@QAE@AAV12@@Z PROC ; std::basic_ostream<char,std::char_traits<char> >::_Sentry_base::_Sentry_base, COMDAT
; _this$ = ecx

; 70   :         __CLR_OR_THIS_CALL _Sentry_base(basic_ostream& _Ostr) : _Myostr(_Ostr) { // lock the stream buffer, if there

  00000	55		 push	 ebp
  00001	8b ec		 mov	 ebp, esp
  00003	81 ec dc 00 00
	00		 sub	 esp, 220		; 000000dcH
  00009	53		 push	 ebx
  0000a	56		 push	 esi
  0000b	57		 push	 edi
  0000c	51		 push	 ecx
  0000d	8d 7d e4	 lea	 edi, DWORD PTR [ebp-28]
  00010	b9 07 00 00 00	 mov	 ecx, 7
  00015	b8 cc cc cc cc	 mov	 eax, -858993460		; ccccccccH
  0001a	f3 ab		 rep stosd
  0001c	59		 pop	 ecx
  0001d	89 4d f8	 mov	 DWORD PTR _this$[ebp], ecx
  00020	b9 00 00 00 00	 mov	 ecx, OFFSET __FFBCF033_ostream
  00025	e8 00 00 00 00	 call	 @__CheckForDebuggerJustMyCode@4
  0002a	8b 45 f8	 mov	 eax, DWORD PTR _this$[ebp]
  0002d	8b 4d 08	 mov	 ecx, DWORD PTR __Ostr$[ebp]
  00030	89 08		 mov	 DWORD PTR [eax], ecx

; 71   :             const auto _Rdbuf = _Myostr.rdbuf();

  00032	8b 45 f8	 mov	 eax, DWORD PTR _this$[ebp]
  00035	8b 08		 mov	 ecx, DWORD PTR [eax]
  00037	89 8d 24 ff ff
	ff		 mov	 DWORD PTR tv73[ebp], ecx
  0003d	8b 95 24 ff ff
	ff		 mov	 edx, DWORD PTR tv73[ebp]
  00043	8b 02		 mov	 eax, DWORD PTR [edx]
  00045	8b 8d 24 ff ff
	ff		 mov	 ecx, DWORD PTR tv73[ebp]
  0004b	03 48 04	 add	 ecx, DWORD PTR [eax+4]
  0004e	8b f4		 mov	 esi, esp
  00050	ff 15 00 00 00
	00		 call	 DWORD PTR __imp_?rdbuf@?$basic_ios@DU?$char_traits@D@std@@@std@@QBEPAV?$basic_streambuf@DU?$char_traits@D@std@@@2@XZ
  00056	3b f4		 cmp	 esi, esp
  00058	e8 00 00 00 00	 call	 __RTC_CheckEsp
  0005d	89 45 ec	 mov	 DWORD PTR __Rdbuf$[ebp], eax

; 72   :             if (_Rdbuf) {

  00060	83 7d ec 00	 cmp	 DWORD PTR __Rdbuf$[ebp], 0
  00064	74 16		 je	 SHORT $LN1@Sentry_bas

; 73   :                 _Rdbuf->_Lock();

  00066	8b 45 ec	 mov	 eax, DWORD PTR __Rdbuf$[ebp]
  00069	8b 10		 mov	 edx, DWORD PTR [eax]
  0006b	8b f4		 mov	 esi, esp
  0006d	8b 4d ec	 mov	 ecx, DWORD PTR __Rdbuf$[ebp]
  00070	8b 42 04	 mov	 eax, DWORD PTR [edx+4]
  00073	ff d0		 call	 eax
  00075	3b f4		 cmp	 esi, esp
  00077	e8 00 00 00 00	 call	 __RTC_CheckEsp
$LN1@Sentry_bas:

; 74   :             }
; 75   :         }

  0007c	8b 45 f8	 mov	 eax, DWORD PTR _this$[ebp]
  0007f	5f		 pop	 edi
  00080	5e		 pop	 esi
  00081	5b		 pop	 ebx
  00082	81 c4 dc 00 00
	00		 add	 esp, 220		; 000000dcH
  00088	3b ec		 cmp	 ebp, esp
  0008a	e8 00 00 00 00	 call	 __RTC_CheckEsp
  0008f	8b e5		 mov	 esp, ebp
  00091	5d		 pop	 ebp
  00092	c2 04 00	 ret	 4
??0_Sentry_base@?$basic_ostream@DU?$char_traits@D@std@@@std@@QAE@AAV12@@Z ENDP ; std::basic_ostream<char,std::char_traits<char> >::_Sentry_base::_Sentry_base
_TEXT	ENDS
; Function compile flags: /Odtp /RTCsu /ZI
; File D:\Soft\Microsoft Visual Studio\VC\Tools\MSVC\14.33.31629\include\xmemory
;	COMDAT ??$_Deallocate@$07$0A@@std@@YAXPAXI@Z
_TEXT	SEGMENT
__$EHRec$ = -12						; size = 12
__Ptr$ = 8						; size = 4
__Bytes$ = 12						; size = 4
??$_Deallocate@$07$0A@@std@@YAXPAXI@Z PROC		; std::_Deallocate<8,0>, COMDAT

; 244  : _CONSTEXPR20 void _Deallocate(void* _Ptr, size_t _Bytes) noexcept {

  00000	55		 push	 ebp
  00001	8b ec		 mov	 ebp, esp
  00003	6a ff		 push	 -1
  00005	68 00 00 00 00	 push	 __ehhandler$??$_Deallocate@$07$0A@@std@@YAXPAXI@Z
  0000a	64 a1 00 00 00
	00		 mov	 eax, DWORD PTR fs:0
  00010	50		 push	 eax
  00011	81 ec c0 00 00
	00		 sub	 esp, 192		; 000000c0H
  00017	53		 push	 ebx
  00018	56		 push	 esi
  00019	57		 push	 edi
  0001a	8d 7d f4	 lea	 edi, DWORD PTR [ebp-12]
  0001d	33 c9		 xor	 ecx, ecx
  0001f	b8 cc cc cc cc	 mov	 eax, -858993460		; ccccccccH
  00024	f3 ab		 rep stosd
  00026	a1 00 00 00 00	 mov	 eax, DWORD PTR ___security_cookie
  0002b	33 c5		 xor	 eax, ebp
  0002d	50		 push	 eax
  0002e	8d 45 f4	 lea	 eax, DWORD PTR __$EHRec$[ebp]
  00031	64 a3 00 00 00
	00		 mov	 DWORD PTR fs:0, eax
  00037	b9 00 00 00 00	 mov	 ecx, OFFSET __4741D85A_xmemory
  0003c	e8 00 00 00 00	 call	 @__CheckForDebuggerJustMyCode@4

; 245  :     // deallocate storage allocated by _Allocate when !_HAS_ALIGNED_NEW || _Align <= __STDCPP_DEFAULT_NEW_ALIGNMENT__
; 246  : #if _HAS_CXX20 // TRANSITION, GH-1532
; 247  :     if (_STD is_constant_evaluated()) {
; 248  :         ::operator delete(_Ptr);
; 249  :     } else
; 250  : #endif // _HAS_CXX20
; 251  :     {
; 252  : #if defined(_M_IX86) || defined(_M_X64)
; 253  :         if (_Bytes >= _Big_allocation_threshold) { // boost the alignment of big allocations to help autovectorization

  00041	81 7d 0c 00 10
	00 00		 cmp	 DWORD PTR __Bytes$[ebp], 4096 ; 00001000H
  00048	72 10		 jb	 SHORT $LN2@Deallocate

; 254  :             _Adjust_manually_vector_aligned(_Ptr, _Bytes);

  0004a	8d 45 0c	 lea	 eax, DWORD PTR __Bytes$[ebp]
  0004d	50		 push	 eax
  0004e	8d 4d 08	 lea	 ecx, DWORD PTR __Ptr$[ebp]
  00051	51		 push	 ecx
  00052	e8 00 00 00 00	 call	 ?_Adjust_manually_vector_aligned@std@@YAXAAPAXAAI@Z ; std::_Adjust_manually_vector_aligned
  00057	83 c4 08	 add	 esp, 8
$LN2@Deallocate:

; 255  :         }
; 256  : #endif // defined(_M_IX86) || defined(_M_X64)
; 257  :         ::operator delete(_Ptr, _Bytes);

  0005a	8b 45 0c	 mov	 eax, DWORD PTR __Bytes$[ebp]
  0005d	50		 push	 eax
  0005e	8b 4d 08	 mov	 ecx, DWORD PTR __Ptr$[ebp]
  00061	51		 push	 ecx
  00062	e8 00 00 00 00	 call	 ??3@YAXPAXI@Z		; operator delete
  00067	83 c4 08	 add	 esp, 8

; 258  :     }
; 259  : }

  0006a	8b 4d f4	 mov	 ecx, DWORD PTR __$EHRec$[ebp]
  0006d	64 89 0d 00 00
	00 00		 mov	 DWORD PTR fs:0, ecx
  00074	59		 pop	 ecx
  00075	5f		 pop	 edi
  00076	5e		 pop	 esi
  00077	5b		 pop	 ebx
  00078	81 c4 cc 00 00
	00		 add	 esp, 204		; 000000ccH
  0007e	3b ec		 cmp	 ebp, esp
  00080	e8 00 00 00 00	 call	 __RTC_CheckEsp
  00085	8b e5		 mov	 esp, ebp
  00087	5d		 pop	 ebp
  00088	c3		 ret	 0
  00089	cc		 int	 3
  0008a	cc		 int	 3
  0008b	cc		 int	 3
  0008c	cc		 int	 3
  0008d	cc		 int	 3
_TEXT	ENDS
;	COMDAT text$x
text$x	SEGMENT
__ehhandler$??$_Deallocate@$07$0A@@std@@YAXPAXI@Z:
  00000	90		 npad	 1
  00001	90		 npad	 1
  00002	8b 54 24 08	 mov	 edx, DWORD PTR [esp+8]
  00006	8d 42 0c	 lea	 eax, DWORD PTR [edx+12]
  00009	8b 8a 30 ff ff
	ff		 mov	 ecx, DWORD PTR [edx-208]
  0000f	33 c8		 xor	 ecx, eax
  00011	e8 00 00 00 00	 call	 @__security_check_cookie@4
  00016	b8 00 00 00 00	 mov	 eax, OFFSET __ehfuncinfo$??$_Deallocate@$07$0A@@std@@YAXPAXI@Z
  0001b	e9 00 00 00 00	 jmp	 ___CxxFrameHandler3
text$x	ENDS
??$_Deallocate@$07$0A@@std@@YAXPAXI@Z ENDP		; std::_Deallocate<8,0>
; Function compile flags: /Odtp /RTCsu /ZI
; File D:\Soft\Microsoft Visual Studio\VC\Tools\MSVC\14.33.31629\include\xstddef
;	COMDAT ??$_Unfancy@D@std@@YAPADPAD@Z
_TEXT	SEGMENT
__Ptr$ = 8						; size = 4
??$_Unfancy@D@std@@YAPADPAD@Z PROC			; std::_Unfancy<char>, COMDAT

; 265  : _NODISCARD constexpr _Ty* _Unfancy(_Ty* _Ptr) noexcept { // do nothing for plain pointers

  00000	55		 push	 ebp
  00001	8b ec		 mov	 ebp, esp
  00003	81 ec c0 00 00
	00		 sub	 esp, 192		; 000000c0H
  00009	53		 push	 ebx
  0000a	56		 push	 esi
  0000b	57		 push	 edi
  0000c	8b fd		 mov	 edi, ebp
  0000e	33 c9		 xor	 ecx, ecx
  00010	b8 cc cc cc cc	 mov	 eax, -858993460		; ccccccccH
  00015	f3 ab		 rep stosd
  00017	b9 00 00 00 00	 mov	 ecx, OFFSET __DACB2C8B_xstddef
  0001c	e8 00 00 00 00	 call	 @__CheckForDebuggerJustMyCode@4

; 266  :     return _Ptr;

  00021	8b 45 08	 mov	 eax, DWORD PTR __Ptr$[ebp]

; 267  : }

  00024	5f		 pop	 edi
  00025	5e		 pop	 esi
  00026	5b		 pop	 ebx
  00027	81 c4 c0 00 00
	00		 add	 esp, 192		; 000000c0H
  0002d	3b ec		 cmp	 ebp, esp
  0002f	e8 00 00 00 00	 call	 __RTC_CheckEsp
  00034	8b e5		 mov	 esp, ebp
  00036	5d		 pop	 ebp
  00037	c3		 ret	 0
??$_Unfancy@D@std@@YAPADPAD@Z ENDP			; std::_Unfancy<char>
_TEXT	ENDS
; Function compile flags: /Odtp /RTCsu /ZI
; File D:\Soft\Microsoft Visual Studio\VC\Tools\MSVC\14.33.31629\include\xmemory
;	COMDAT ??$_Destroy_in_place@PAD@std@@YAXAAPAD@Z
_TEXT	SEGMENT
__Obj$ = 8						; size = 4
??$_Destroy_in_place@PAD@std@@YAXAAPAD@Z PROC		; std::_Destroy_in_place<char *>, COMDAT

; 296  : _CONSTEXPR20 void _Destroy_in_place(_Ty& _Obj) noexcept {

  00000	55		 push	 ebp
  00001	8b ec		 mov	 ebp, esp
  00003	81 ec c0 00 00
	00		 sub	 esp, 192		; 000000c0H
  00009	53		 push	 ebx
  0000a	56		 push	 esi
  0000b	57		 push	 edi
  0000c	8b fd		 mov	 edi, ebp
  0000e	33 c9		 xor	 ecx, ecx
  00010	b8 cc cc cc cc	 mov	 eax, -858993460		; ccccccccH
  00015	f3 ab		 rep stosd
  00017	b9 00 00 00 00	 mov	 ecx, OFFSET __4741D85A_xmemory
  0001c	e8 00 00 00 00	 call	 @__CheckForDebuggerJustMyCode@4

; 297  :     if constexpr (is_array_v<_Ty>) {
; 298  :         _Destroy_range(_Obj, _Obj + extent_v<_Ty>);
; 299  :     } else {
; 300  :         _Obj.~_Ty();
; 301  :     }
; 302  : }

  00021	5f		 pop	 edi
  00022	5e		 pop	 esi
  00023	5b		 pop	 ebx
  00024	81 c4 c0 00 00
	00		 add	 esp, 192		; 000000c0H
  0002a	3b ec		 cmp	 ebp, esp
  0002c	e8 00 00 00 00	 call	 __RTC_CheckEsp
  00031	8b e5		 mov	 esp, ebp
  00033	5d		 pop	 ebp
  00034	c3		 ret	 0
??$_Destroy_in_place@PAD@std@@YAXAAPAD@Z ENDP		; std::_Destroy_in_place<char *>
_TEXT	ENDS
; Function compile flags: /Odtp /RTCsu /ZI
; File D:\Soft\Microsoft Visual Studio\VC\Tools\MSVC\14.33.31629\include\xmemory
;	COMDAT ??$?0D@?$allocator@U_Container_proxy@std@@@std@@QAE@ABV?$allocator@D@1@@Z
_TEXT	SEGMENT
_this$ = -8						; size = 4
___formal$ = 8						; size = 4
??$?0D@?$allocator@U_Container_proxy@std@@@std@@QAE@ABV?$allocator@D@1@@Z PROC ; std::allocator<std::_Container_proxy>::allocator<std::_Container_proxy><char>, COMDAT
; _this$ = ecx

; 825  :     constexpr allocator(const allocator<_Other>&) noexcept {}

  00000	55		 push	 ebp
  00001	8b ec		 mov	 ebp, esp
  00003	81 ec cc 00 00
	00		 sub	 esp, 204		; 000000ccH
  00009	53		 push	 ebx
  0000a	56		 push	 esi
  0000b	57		 push	 edi
  0000c	51		 push	 ecx
  0000d	8d 7d f4	 lea	 edi, DWORD PTR [ebp-12]
  00010	b9 03 00 00 00	 mov	 ecx, 3
  00015	b8 cc cc cc cc	 mov	 eax, -858993460		; ccccccccH
  0001a	f3 ab		 rep stosd
  0001c	59		 pop	 ecx
  0001d	89 4d f8	 mov	 DWORD PTR _this$[ebp], ecx
  00020	b9 00 00 00 00	 mov	 ecx, OFFSET __4741D85A_xmemory
  00025	e8 00 00 00 00	 call	 @__CheckForDebuggerJustMyCode@4
  0002a	8b 45 f8	 mov	 eax, DWORD PTR _this$[ebp]
  0002d	5f		 pop	 edi
  0002e	5e		 pop	 esi
  0002f	5b		 pop	 ebx
  00030	81 c4 cc 00 00
	00		 add	 esp, 204		; 000000ccH
  00036	3b ec		 cmp	 ebp, esp
  00038	e8 00 00 00 00	 call	 __RTC_CheckEsp
  0003d	8b e5		 mov	 esp, ebp
  0003f	5d		 pop	 ebp
  00040	c2 04 00	 ret	 4
??$?0D@?$allocator@U_Container_proxy@std@@@std@@QAE@ABV?$allocator@D@1@@Z ENDP ; std::allocator<std::_Container_proxy>::allocator<std::_Container_proxy><char>
_TEXT	ENDS
; Function compile flags: /Odtp /RTCsu /ZI
; File D:\Soft\Microsoft Visual Studio\VC\Tools\MSVC\14.33.31629\include\xmemory
;	COMDAT ??$_Delete_plain_internal@V?$allocator@U_Container_proxy@std@@@std@@@std@@YAXAAV?$allocator@U_Container_proxy@std@@@0@QAU_Container_proxy@0@@Z
_TEXT	SEGMENT
__Al$ = 8						; size = 4
__Ptr$ = 12						; size = 4
??$_Delete_plain_internal@V?$allocator@U_Container_proxy@std@@@std@@@std@@YAXAAV?$allocator@U_Container_proxy@std@@@0@QAU_Container_proxy@0@@Z PROC ; std::_Delete_plain_internal<std::allocator<std::_Container_proxy> >, COMDAT

; 989  : _CONSTEXPR20 void _Delete_plain_internal(_Alloc& _Al, typename _Alloc::value_type* const _Ptr) noexcept {

  00000	55		 push	 ebp
  00001	8b ec		 mov	 ebp, esp
  00003	81 ec c0 00 00
	00		 sub	 esp, 192		; 000000c0H
  00009	53		 push	 ebx
  0000a	56		 push	 esi
  0000b	57		 push	 edi
  0000c	8b fd		 mov	 edi, ebp
  0000e	33 c9		 xor	 ecx, ecx
  00010	b8 cc cc cc cc	 mov	 eax, -858993460		; ccccccccH
  00015	f3 ab		 rep stosd
  00017	b9 00 00 00 00	 mov	 ecx, OFFSET __4741D85A_xmemory
  0001c	e8 00 00 00 00	 call	 @__CheckForDebuggerJustMyCode@4

; 990  :     // destroy *_Ptr in place, then deallocate _Ptr using _Al; used for internal container types the user didn't name
; 991  :     using _Ty = typename _Alloc::value_type;
; 992  :     _Ptr->~_Ty();
; 993  :     _Deallocate_plain(_Al, _Ptr);

  00021	8b 45 0c	 mov	 eax, DWORD PTR __Ptr$[ebp]
  00024	50		 push	 eax
  00025	8b 4d 08	 mov	 ecx, DWORD PTR __Al$[ebp]
  00028	51		 push	 ecx
  00029	e8 00 00 00 00	 call	 ??$_Deallocate_plain@V?$allocator@U_Container_proxy@std@@@std@@@std@@YAXAAV?$allocator@U_Container_proxy@std@@@0@QAU_Container_proxy@0@@Z ; std::_Deallocate_plain<std::allocator<std::_Container_proxy> >
  0002e	83 c4 08	 add	 esp, 8

; 994  : }

  00031	5f		 pop	 edi
  00032	5e		 pop	 esi
  00033	5b		 pop	 ebx
  00034	81 c4 c0 00 00
	00		 add	 esp, 192		; 000000c0H
  0003a	3b ec		 cmp	 ebp, esp
  0003c	e8 00 00 00 00	 call	 __RTC_CheckEsp
  00041	8b e5		 mov	 esp, ebp
  00043	5d		 pop	 ebp
  00044	c3		 ret	 0
??$_Delete_plain_internal@V?$allocator@U_Container_proxy@std@@@std@@@std@@YAXAAV?$allocator@U_Container_proxy@std@@@0@QAU_Container_proxy@0@@Z ENDP ; std::_Delete_plain_internal<std::allocator<std::_Container_proxy> >
_TEXT	ENDS
; Function compile flags: /Odtp /RTCsu /ZI
; File D:\Soft\Microsoft Visual Studio\VC\Tools\MSVC\14.33.31629\include\ostream
;	COMDAT ??$endl@DU?$char_traits@D@std@@@std@@YAAAV?$basic_ostream@DU?$char_traits@D@std@@@0@AAV10@@Z
_TEXT	SEGMENT
__Ostr$ = 8						; size = 4
??$endl@DU?$char_traits@D@std@@@std@@YAAAV?$basic_ostream@DU?$char_traits@D@std@@@0@AAV10@@Z PROC ; std::endl<char,std::char_traits<char> >, COMDAT

; 1005 :     basic_ostream<_Elem, _Traits>& _Ostr) { // insert newline and flush stream

  00000	55		 push	 ebp
  00001	8b ec		 mov	 ebp, esp
  00003	81 ec c0 00 00
	00		 sub	 esp, 192		; 000000c0H
  00009	53		 push	 ebx
  0000a	56		 push	 esi
  0000b	57		 push	 edi
  0000c	8b fd		 mov	 edi, ebp
  0000e	33 c9		 xor	 ecx, ecx
  00010	b8 cc cc cc cc	 mov	 eax, -858993460		; ccccccccH
  00015	f3 ab		 rep stosd
  00017	b9 00 00 00 00	 mov	 ecx, OFFSET __FFBCF033_ostream
  0001c	e8 00 00 00 00	 call	 @__CheckForDebuggerJustMyCode@4

; 1006 :     _Ostr.put(_Ostr.widen('\n'));

  00021	8b f4		 mov	 esi, esp
  00023	6a 0a		 push	 10			; 0000000aH
  00025	8b 45 08	 mov	 eax, DWORD PTR __Ostr$[ebp]
  00028	8b 08		 mov	 ecx, DWORD PTR [eax]
  0002a	8b 55 08	 mov	 edx, DWORD PTR __Ostr$[ebp]
  0002d	03 51 04	 add	 edx, DWORD PTR [ecx+4]
  00030	8b ca		 mov	 ecx, edx
  00032	ff 15 00 00 00
	00		 call	 DWORD PTR __imp_?widen@?$basic_ios@DU?$char_traits@D@std@@@std@@QBEDD@Z
  00038	3b f4		 cmp	 esi, esp
  0003a	e8 00 00 00 00	 call	 __RTC_CheckEsp
  0003f	8b f4		 mov	 esi, esp
  00041	0f b6 c0	 movzx	 eax, al
  00044	50		 push	 eax
  00045	8b 4d 08	 mov	 ecx, DWORD PTR __Ostr$[ebp]
  00048	ff 15 00 00 00
	00		 call	 DWORD PTR __imp_?put@?$basic_ostream@DU?$char_traits@D@std@@@std@@QAEAAV12@D@Z
  0004e	3b f4		 cmp	 esi, esp
  00050	e8 00 00 00 00	 call	 __RTC_CheckEsp

; 1007 :     _Ostr.flush();

  00055	8b f4		 mov	 esi, esp
  00057	8b 4d 08	 mov	 ecx, DWORD PTR __Ostr$[ebp]
  0005a	ff 15 00 00 00
	00		 call	 DWORD PTR __imp_?flush@?$basic_ostream@DU?$char_traits@D@std@@@std@@QAEAAV12@XZ
  00060	3b f4		 cmp	 esi, esp
  00062	e8 00 00 00 00	 call	 __RTC_CheckEsp

; 1008 :     return _Ostr;

  00067	8b 45 08	 mov	 eax, DWORD PTR __Ostr$[ebp]

; 1009 : }

  0006a	5f		 pop	 edi
  0006b	5e		 pop	 esi
  0006c	5b		 pop	 ebx
  0006d	81 c4 c0 00 00
	00		 add	 esp, 192		; 000000c0H
  00073	3b ec		 cmp	 ebp, esp
  00075	e8 00 00 00 00	 call	 __RTC_CheckEsp
  0007a	8b e5		 mov	 esp, ebp
  0007c	5d		 pop	 ebp
  0007d	c3		 ret	 0
??$endl@DU?$char_traits@D@std@@@std@@YAAAV?$basic_ostream@DU?$char_traits@D@std@@@0@AAV10@@Z ENDP ; std::endl<char,std::char_traits<char> >
_TEXT	ENDS
; Function compile flags: /Odtp /RTCsu /ZI
; File D:\Soft\Microsoft Visual Studio\VC\Tools\MSVC\14.33.31629\include\ostream
;	COMDAT ??$?6U?$char_traits@D@std@@@std@@YAAAV?$basic_ostream@DU?$char_traits@D@std@@@0@AAV10@PBD@Z
_TEXT	SEGMENT
tv135 = -356						; size = 8
tv343 = -348						; size = 8
tv291 = -344						; size = 4
tv288 = -344						; size = 8
tv286 = -344						; size = 4
tv329 = -340						; size = 8
tv290 = -340						; size = 4
tv285 = -340						; size = 4
tv287 = -336						; size = 4
tv137 = -336						; size = 4
tv289 = -333						; size = 1
tv284 = -333						; size = 1
$T2 = -328						; size = 4
$T3 = -316						; size = 4
$T4 = -304						; size = 4
$T5 = -292						; size = 4
$T6 = -280						; size = 4
__Ok$ = -76						; size = 8
__Pad$ = -60						; size = 8
__Count$ = -44						; size = 8
__State$ = -28						; size = 4
__$ArrayPad$ = -20					; size = 4
__$EHRec$ = -16						; size = 16
__Ostr$ = 8						; size = 4
__Val$ = 12						; size = 4
??$?6U?$char_traits@D@std@@@std@@YAAAV?$basic_ostream@DU?$char_traits@D@std@@@0@AAV10@PBD@Z PROC ; std::operator<<<std::char_traits<char> >, COMDAT

; 761  : basic_ostream<char, _Traits>& operator<<(basic_ostream<char, _Traits>& _Ostr, const char* _Val) {

  00000	55		 push	 ebp
  00001	8b ec		 mov	 ebp, esp
  00003	6a ff		 push	 -1
  00005	68 00 00 00 00	 push	 __ehhandler$??$?6U?$char_traits@D@std@@@std@@YAAAV?$basic_ostream@DU?$char_traits@D@std@@@0@AAV10@PBD@Z
  0000a	64 a1 00 00 00
	00		 mov	 eax, DWORD PTR fs:0
  00010	50		 push	 eax
  00011	51		 push	 ecx
  00012	81 ec 54 01 00
	00		 sub	 esp, 340		; 00000154H
  00018	53		 push	 ebx
  00019	56		 push	 esi
  0001a	57		 push	 edi
  0001b	8d bd 5c ff ff
	ff		 lea	 edi, DWORD PTR [ebp-164]
  00021	b9 25 00 00 00	 mov	 ecx, 37			; 00000025H
  00026	b8 cc cc cc cc	 mov	 eax, -858993460		; ccccccccH
  0002b	f3 ab		 rep stosd
  0002d	a1 00 00 00 00	 mov	 eax, DWORD PTR ___security_cookie
  00032	33 c5		 xor	 eax, ebp
  00034	89 45 ec	 mov	 DWORD PTR __$ArrayPad$[ebp], eax
  00037	50		 push	 eax
  00038	8d 45 f4	 lea	 eax, DWORD PTR __$EHRec$[ebp+4]
  0003b	64 a3 00 00 00
	00		 mov	 DWORD PTR fs:0, eax
  00041	89 65 f0	 mov	 DWORD PTR __$EHRec$[ebp], esp
  00044	b9 00 00 00 00	 mov	 ecx, OFFSET __FFBCF033_ostream
  00049	e8 00 00 00 00	 call	 @__CheckForDebuggerJustMyCode@4

; 762  :     // insert NTBS into char stream
; 763  :     using _Elem = char;
; 764  :     using _Myos = basic_ostream<_Elem, _Traits>;
; 765  : 
; 766  :     ios_base::iostate _State = ios_base::goodbit;

  0004e	c7 45 e4 00 00
	00 00		 mov	 DWORD PTR __State$[ebp], 0

; 767  :     streamsize _Count        = static_cast<streamsize>(_Traits::length(_Val));

  00055	8b 45 0c	 mov	 eax, DWORD PTR __Val$[ebp]
  00058	50		 push	 eax
  00059	e8 00 00 00 00	 call	 ?length@?$_Narrow_char_traits@DH@std@@SAIQBD@Z ; std::_Narrow_char_traits<char,int>::length
  0005e	83 c4 04	 add	 esp, 4
  00061	33 c9		 xor	 ecx, ecx
  00063	89 45 d4	 mov	 DWORD PTR __Count$[ebp], eax
  00066	89 4d d8	 mov	 DWORD PTR __Count$[ebp+4], ecx

; 768  :     streamsize _Pad          = _Ostr.width() <= 0 || _Ostr.width() <= _Count ? 0 : _Ostr.width() - _Count;

  00069	8b 45 08	 mov	 eax, DWORD PTR __Ostr$[ebp]
  0006c	8b 08		 mov	 ecx, DWORD PTR [eax]
  0006e	8b 55 08	 mov	 edx, DWORD PTR __Ostr$[ebp]
  00071	03 51 04	 add	 edx, DWORD PTR [ecx+4]
  00074	8b f4		 mov	 esi, esp
  00076	8b ca		 mov	 ecx, edx
  00078	ff 15 00 00 00
	00		 call	 DWORD PTR __imp_?width@ios_base@std@@QBE_JXZ
  0007e	3b f4		 cmp	 esi, esp
  00080	e8 00 00 00 00	 call	 __RTC_CheckEsp
  00085	89 85 ac fe ff
	ff		 mov	 DWORD PTR tv329[ebp], eax
  0008b	89 95 b0 fe ff
	ff		 mov	 DWORD PTR tv329[ebp+4], edx
  00091	83 bd b0 fe ff
	ff 00		 cmp	 DWORD PTR tv329[ebp+4], 0
  00098	7c 79		 jl	 SHORT $LN17@operator
  0009a	7f 09		 jg	 SHORT $LN24@operator
  0009c	83 bd ac fe ff
	ff 00		 cmp	 DWORD PTR tv329[ebp], 0
  000a3	76 6e		 jbe	 SHORT $LN17@operator
$LN24@operator:
  000a5	8b 45 08	 mov	 eax, DWORD PTR __Ostr$[ebp]
  000a8	8b 08		 mov	 ecx, DWORD PTR [eax]
  000aa	8b 55 08	 mov	 edx, DWORD PTR __Ostr$[ebp]
  000ad	03 51 04	 add	 edx, DWORD PTR [ecx+4]
  000b0	8b f4		 mov	 esi, esp
  000b2	8b ca		 mov	 ecx, edx
  000b4	ff 15 00 00 00
	00		 call	 DWORD PTR __imp_?width@ios_base@std@@QBE_JXZ
  000ba	3b f4		 cmp	 esi, esp
  000bc	e8 00 00 00 00	 call	 __RTC_CheckEsp
  000c1	89 85 a4 fe ff
	ff		 mov	 DWORD PTR tv343[ebp], eax
  000c7	89 95 a8 fe ff
	ff		 mov	 DWORD PTR tv343[ebp+4], edx
  000cd	8b 85 a8 fe ff
	ff		 mov	 eax, DWORD PTR tv343[ebp+4]
  000d3	3b 45 d8	 cmp	 eax, DWORD PTR __Count$[ebp+4]
  000d6	7c 3b		 jl	 SHORT $LN17@operator
  000d8	7f 0b		 jg	 SHORT $LN25@operator
  000da	8b 8d a4 fe ff
	ff		 mov	 ecx, DWORD PTR tv343[ebp]
  000e0	3b 4d d4	 cmp	 ecx, DWORD PTR __Count$[ebp]
  000e3	76 2e		 jbe	 SHORT $LN17@operator
$LN25@operator:
  000e5	8b 55 08	 mov	 edx, DWORD PTR __Ostr$[ebp]
  000e8	8b 02		 mov	 eax, DWORD PTR [edx]
  000ea	8b 4d 08	 mov	 ecx, DWORD PTR __Ostr$[ebp]
  000ed	03 48 04	 add	 ecx, DWORD PTR [eax+4]
  000f0	8b f4		 mov	 esi, esp
  000f2	ff 15 00 00 00
	00		 call	 DWORD PTR __imp_?width@ios_base@std@@QBE_JXZ
  000f8	3b f4		 cmp	 esi, esp
  000fa	e8 00 00 00 00	 call	 __RTC_CheckEsp
  000ff	2b 45 d4	 sub	 eax, DWORD PTR __Count$[ebp]
  00102	1b 55 d8	 sbb	 edx, DWORD PTR __Count$[ebp+4]
  00105	89 85 9c fe ff
	ff		 mov	 DWORD PTR tv135[ebp], eax
  0010b	89 95 a0 fe ff
	ff		 mov	 DWORD PTR tv135[ebp+4], edx
  00111	eb 0b		 jmp	 SHORT $LN18@operator
$LN17@operator:
  00113	0f 57 c0	 xorps	 xmm0, xmm0
  00116	66 0f 13 85 9c
	fe ff ff	 movlpd	 QWORD PTR tv135[ebp], xmm0
$LN18@operator:
  0011e	8b 8d 9c fe ff
	ff		 mov	 ecx, DWORD PTR tv135[ebp]
  00124	8b 95 a0 fe ff
	ff		 mov	 edx, DWORD PTR tv135[ebp+4]
  0012a	89 4d c4	 mov	 DWORD PTR __Pad$[ebp], ecx
  0012d	89 55 c8	 mov	 DWORD PTR __Pad$[ebp+4], edx

; 769  :     const typename _Myos::sentry _Ok(_Ostr);

  00130	8b 45 08	 mov	 eax, DWORD PTR __Ostr$[ebp]
  00133	50		 push	 eax
  00134	8d 4d b4	 lea	 ecx, DWORD PTR __Ok$[ebp]
  00137	e8 00 00 00 00	 call	 ??0sentry@?$basic_ostream@DU?$char_traits@D@std@@@std@@QAE@AAV12@@Z ; std::basic_ostream<char,std::char_traits<char> >::sentry::sentry
  0013c	c7 45 fc 00 00
	00 00		 mov	 DWORD PTR __$EHRec$[ebp+12], 0

; 770  : 
; 771  :     if (!_Ok) {

  00143	8d 4d b4	 lea	 ecx, DWORD PTR __Ok$[ebp]
  00146	e8 00 00 00 00	 call	 ??Bsentry@?$basic_ostream@DU?$char_traits@D@std@@@std@@QBE_NXZ ; std::basic_ostream<char,std::char_traits<char> >::sentry::operator bool
  0014b	0f b6 c0	 movzx	 eax, al
  0014e	85 c0		 test	 eax, eax
  00150	75 0e		 jne	 SHORT $LN8@operator

; 772  :         _State |= ios_base::badbit;

  00152	8b 45 e4	 mov	 eax, DWORD PTR __State$[ebp]
  00155	83 c8 04	 or	 eax, 4
  00158	89 45 e4	 mov	 DWORD PTR __State$[ebp], eax

; 773  :     } else { // state okay, insert

  0015b	e9 ba 02 00 00	 jmp	 $LN9@operator
$LN8@operator:

; 774  :         _TRY_IO_BEGIN

  00160	c6 45 fc 01	 mov	 BYTE PTR __$EHRec$[ebp+12], 1

; 775  :         if ((_Ostr.flags() & ios_base::adjustfield) != ios_base::left) {

  00164	8b 45 08	 mov	 eax, DWORD PTR __Ostr$[ebp]
  00167	8b 08		 mov	 ecx, DWORD PTR [eax]
  00169	8b 55 08	 mov	 edx, DWORD PTR __Ostr$[ebp]
  0016c	03 51 04	 add	 edx, DWORD PTR [ecx+4]
  0016f	8b f4		 mov	 esi, esp
  00171	8b ca		 mov	 ecx, edx
  00173	ff 15 00 00 00
	00		 call	 DWORD PTR __imp_?flags@ios_base@std@@QBEHXZ
  00179	3b f4		 cmp	 esi, esp
  0017b	e8 00 00 00 00	 call	 __RTC_CheckEsp
  00180	89 85 b0 fe ff
	ff		 mov	 DWORD PTR tv137[ebp], eax
  00186	8b 85 b0 fe ff
	ff		 mov	 eax, DWORD PTR tv137[ebp]
  0018c	25 c0 01 00 00	 and	 eax, 448		; 000001c0H
  00191	83 f8 40	 cmp	 eax, 64			; 00000040H
  00194	0f 84 d5 00 00
	00		 je	 $LN11@operator

; 776  :             for (; 0 < _Pad; --_Pad) { // pad on left

  0019a	eb 12		 jmp	 SHORT $LN4@operator
$LN2@operator:
  0019c	8b 45 c4	 mov	 eax, DWORD PTR __Pad$[ebp]
  0019f	83 e8 01	 sub	 eax, 1
  001a2	8b 4d c8	 mov	 ecx, DWORD PTR __Pad$[ebp+4]
  001a5	83 d9 00	 sbb	 ecx, 0
  001a8	89 45 c4	 mov	 DWORD PTR __Pad$[ebp], eax
  001ab	89 4d c8	 mov	 DWORD PTR __Pad$[ebp+4], ecx
$LN4@operator:
  001ae	83 7d c8 00	 cmp	 DWORD PTR __Pad$[ebp+4], 0
  001b2	0f 8c b7 00 00
	00		 jl	 $LN11@operator
  001b8	7f 0a		 jg	 SHORT $LN26@operator
  001ba	83 7d c4 00	 cmp	 DWORD PTR __Pad$[ebp], 0
  001be	0f 86 ab 00 00
	00		 jbe	 $LN11@operator
$LN26@operator:

; 777  :                 if (_Traits::eq_int_type(_Traits::eof(), _Ostr.rdbuf()->sputc(_Ostr.fill()))) {

  001c4	8b 45 08	 mov	 eax, DWORD PTR __Ostr$[ebp]
  001c7	8b 08		 mov	 ecx, DWORD PTR [eax]
  001c9	8b 55 08	 mov	 edx, DWORD PTR __Ostr$[ebp]
  001cc	03 51 04	 add	 edx, DWORD PTR [ecx+4]
  001cf	8b f4		 mov	 esi, esp
  001d1	8b ca		 mov	 ecx, edx
  001d3	ff 15 00 00 00
	00		 call	 DWORD PTR __imp_?fill@?$basic_ios@DU?$char_traits@D@std@@@std@@QBEDXZ
  001d9	3b f4		 cmp	 esi, esp
  001db	e8 00 00 00 00	 call	 __RTC_CheckEsp
  001e0	88 85 b3 fe ff
	ff		 mov	 BYTE PTR tv284[ebp], al
  001e6	8b 45 08	 mov	 eax, DWORD PTR __Ostr$[ebp]
  001e9	8b 08		 mov	 ecx, DWORD PTR [eax]
  001eb	8b 55 08	 mov	 edx, DWORD PTR __Ostr$[ebp]
  001ee	03 51 04	 add	 edx, DWORD PTR [ecx+4]
  001f1	8b f4		 mov	 esi, esp
  001f3	8b ca		 mov	 ecx, edx
  001f5	ff 15 00 00 00
	00		 call	 DWORD PTR __imp_?rdbuf@?$basic_ios@DU?$char_traits@D@std@@@std@@QBEPAV?$basic_streambuf@DU?$char_traits@D@std@@@2@XZ
  001fb	3b f4		 cmp	 esi, esp
  001fd	e8 00 00 00 00	 call	 __RTC_CheckEsp
  00202	89 85 ac fe ff
	ff		 mov	 DWORD PTR tv285[ebp], eax
  00208	8b f4		 mov	 esi, esp
  0020a	0f b6 85 b3 fe
	ff ff		 movzx	 eax, BYTE PTR tv284[ebp]
  00211	50		 push	 eax
  00212	8b 8d ac fe ff
	ff		 mov	 ecx, DWORD PTR tv285[ebp]
  00218	ff 15 00 00 00
	00		 call	 DWORD PTR __imp_?sputc@?$basic_streambuf@DU?$char_traits@D@std@@@std@@QAEHD@Z
  0021e	3b f4		 cmp	 esi, esp
  00220	e8 00 00 00 00	 call	 __RTC_CheckEsp
  00225	89 85 a8 fe ff
	ff		 mov	 DWORD PTR tv286[ebp], eax
  0022b	8b 8d a8 fe ff
	ff		 mov	 ecx, DWORD PTR tv286[ebp]
  00231	89 8d e8 fe ff
	ff		 mov	 DWORD PTR $T6[ebp], ecx
  00237	e8 00 00 00 00	 call	 ?eof@?$_Narrow_char_traits@DH@std@@SAHXZ ; std::_Narrow_char_traits<char,int>::eof
  0023c	89 85 dc fe ff
	ff		 mov	 DWORD PTR $T5[ebp], eax
  00242	8d 95 e8 fe ff
	ff		 lea	 edx, DWORD PTR $T6[ebp]
  00248	52		 push	 edx
  00249	8d 85 dc fe ff
	ff		 lea	 eax, DWORD PTR $T5[ebp]
  0024f	50		 push	 eax
  00250	e8 00 00 00 00	 call	 ?eq_int_type@?$_Narrow_char_traits@DH@std@@SA_NABH0@Z ; std::_Narrow_char_traits<char,int>::eq_int_type
  00255	83 c4 08	 add	 esp, 8
  00258	0f b6 c8	 movzx	 ecx, al
  0025b	85 c9		 test	 ecx, ecx
  0025d	74 0b		 je	 SHORT $LN12@operator

; 778  :                     _State |= ios_base::badbit; // insertion failed, quit

  0025f	8b 45 e4	 mov	 eax, DWORD PTR __State$[ebp]
  00262	83 c8 04	 or	 eax, 4
  00265	89 45 e4	 mov	 DWORD PTR __State$[ebp], eax

; 779  :                     break;

  00268	eb 05		 jmp	 SHORT $LN11@operator
$LN12@operator:

; 780  :                 }
; 781  :             }

  0026a	e9 2d ff ff ff	 jmp	 $LN2@operator
$LN11@operator:

; 782  :         }
; 783  : 
; 784  :         if (_State == ios_base::goodbit && _Ostr.rdbuf()->sputn(_Val, _Count) != _Count) {

  0026f	83 7d e4 00	 cmp	 DWORD PTR __State$[ebp], 0
  00273	75 6e		 jne	 SHORT $LN13@operator
  00275	8b 45 08	 mov	 eax, DWORD PTR __Ostr$[ebp]
  00278	8b 08		 mov	 ecx, DWORD PTR [eax]
  0027a	8b 55 08	 mov	 edx, DWORD PTR __Ostr$[ebp]
  0027d	03 51 04	 add	 edx, DWORD PTR [ecx+4]
  00280	8b f4		 mov	 esi, esp
  00282	8b ca		 mov	 ecx, edx
  00284	ff 15 00 00 00
	00		 call	 DWORD PTR __imp_?rdbuf@?$basic_ios@DU?$char_traits@D@std@@@std@@QBEPAV?$basic_streambuf@DU?$char_traits@D@std@@@2@XZ
  0028a	3b f4		 cmp	 esi, esp
  0028c	e8 00 00 00 00	 call	 __RTC_CheckEsp
  00291	89 85 b0 fe ff
	ff		 mov	 DWORD PTR tv287[ebp], eax
  00297	8b f4		 mov	 esi, esp
  00299	8b 45 d8	 mov	 eax, DWORD PTR __Count$[ebp+4]
  0029c	50		 push	 eax
  0029d	8b 4d d4	 mov	 ecx, DWORD PTR __Count$[ebp]
  002a0	51		 push	 ecx
  002a1	8b 55 0c	 mov	 edx, DWORD PTR __Val$[ebp]
  002a4	52		 push	 edx
  002a5	8b 8d b0 fe ff
	ff		 mov	 ecx, DWORD PTR tv287[ebp]
  002ab	ff 15 00 00 00
	00		 call	 DWORD PTR __imp_?sputn@?$basic_streambuf@DU?$char_traits@D@std@@@std@@QAE_JPBD_J@Z
  002b1	3b f4		 cmp	 esi, esp
  002b3	e8 00 00 00 00	 call	 __RTC_CheckEsp
  002b8	89 85 a8 fe ff
	ff		 mov	 DWORD PTR tv288[ebp], eax
  002be	89 95 ac fe ff
	ff		 mov	 DWORD PTR tv288[ebp+4], edx
  002c4	8b 85 a8 fe ff
	ff		 mov	 eax, DWORD PTR tv288[ebp]
  002ca	3b 45 d4	 cmp	 eax, DWORD PTR __Count$[ebp]
  002cd	75 0b		 jne	 SHORT $LN27@operator
  002cf	8b 8d ac fe ff
	ff		 mov	 ecx, DWORD PTR tv288[ebp+4]
  002d5	3b 4d d8	 cmp	 ecx, DWORD PTR __Count$[ebp+4]
  002d8	74 09		 je	 SHORT $LN13@operator
$LN27@operator:

; 785  :             _State |= ios_base::badbit;

  002da	8b 45 e4	 mov	 eax, DWORD PTR __State$[ebp]
  002dd	83 c8 04	 or	 eax, 4
  002e0	89 45 e4	 mov	 DWORD PTR __State$[ebp], eax
$LN13@operator:

; 786  :         }
; 787  : 
; 788  :         if (_State == ios_base::goodbit) {

  002e3	83 7d e4 00	 cmp	 DWORD PTR __State$[ebp], 0
  002e7	0f 85 d5 00 00
	00		 jne	 $LN14@operator

; 789  :             for (; 0 < _Pad; --_Pad) { // pad on right

  002ed	eb 12		 jmp	 SHORT $LN7@operator
$LN5@operator:
  002ef	8b 45 c4	 mov	 eax, DWORD PTR __Pad$[ebp]
  002f2	83 e8 01	 sub	 eax, 1
  002f5	8b 4d c8	 mov	 ecx, DWORD PTR __Pad$[ebp+4]
  002f8	83 d9 00	 sbb	 ecx, 0
  002fb	89 45 c4	 mov	 DWORD PTR __Pad$[ebp], eax
  002fe	89 4d c8	 mov	 DWORD PTR __Pad$[ebp+4], ecx
$LN7@operator:
  00301	83 7d c8 00	 cmp	 DWORD PTR __Pad$[ebp+4], 0
  00305	0f 8c b7 00 00
	00		 jl	 $LN14@operator
  0030b	7f 0a		 jg	 SHORT $LN28@operator
  0030d	83 7d c4 00	 cmp	 DWORD PTR __Pad$[ebp], 0
  00311	0f 86 ab 00 00
	00		 jbe	 $LN14@operator
$LN28@operator:

; 790  :                 if (_Traits::eq_int_type(_Traits::eof(), _Ostr.rdbuf()->sputc(_Ostr.fill()))) {

  00317	8b 45 08	 mov	 eax, DWORD PTR __Ostr$[ebp]
  0031a	8b 08		 mov	 ecx, DWORD PTR [eax]
  0031c	8b 55 08	 mov	 edx, DWORD PTR __Ostr$[ebp]
  0031f	03 51 04	 add	 edx, DWORD PTR [ecx+4]
  00322	8b f4		 mov	 esi, esp
  00324	8b ca		 mov	 ecx, edx
  00326	ff 15 00 00 00
	00		 call	 DWORD PTR __imp_?fill@?$basic_ios@DU?$char_traits@D@std@@@std@@QBEDXZ
  0032c	3b f4		 cmp	 esi, esp
  0032e	e8 00 00 00 00	 call	 __RTC_CheckEsp
  00333	88 85 b3 fe ff
	ff		 mov	 BYTE PTR tv289[ebp], al
  00339	8b 45 08	 mov	 eax, DWORD PTR __Ostr$[ebp]
  0033c	8b 08		 mov	 ecx, DWORD PTR [eax]
  0033e	8b 55 08	 mov	 edx, DWORD PTR __Ostr$[ebp]
  00341	03 51 04	 add	 edx, DWORD PTR [ecx+4]
  00344	8b f4		 mov	 esi, esp
  00346	8b ca		 mov	 ecx, edx
  00348	ff 15 00 00 00
	00		 call	 DWORD PTR __imp_?rdbuf@?$basic_ios@DU?$char_traits@D@std@@@std@@QBEPAV?$basic_streambuf@DU?$char_traits@D@std@@@2@XZ
  0034e	3b f4		 cmp	 esi, esp
  00350	e8 00 00 00 00	 call	 __RTC_CheckEsp
  00355	89 85 ac fe ff
	ff		 mov	 DWORD PTR tv290[ebp], eax
  0035b	8b f4		 mov	 esi, esp
  0035d	0f b6 85 b3 fe
	ff ff		 movzx	 eax, BYTE PTR tv289[ebp]
  00364	50		 push	 eax
  00365	8b 8d ac fe ff
	ff		 mov	 ecx, DWORD PTR tv290[ebp]
  0036b	ff 15 00 00 00
	00		 call	 DWORD PTR __imp_?sputc@?$basic_streambuf@DU?$char_traits@D@std@@@std@@QAEHD@Z
  00371	3b f4		 cmp	 esi, esp
  00373	e8 00 00 00 00	 call	 __RTC_CheckEsp
  00378	89 85 a8 fe ff
	ff		 mov	 DWORD PTR tv291[ebp], eax
  0037e	8b 8d a8 fe ff
	ff		 mov	 ecx, DWORD PTR tv291[ebp]
  00384	89 8d d0 fe ff
	ff		 mov	 DWORD PTR $T4[ebp], ecx
  0038a	e8 00 00 00 00	 call	 ?eof@?$_Narrow_char_traits@DH@std@@SAHXZ ; std::_Narrow_char_traits<char,int>::eof
  0038f	89 85 c4 fe ff
	ff		 mov	 DWORD PTR $T3[ebp], eax
  00395	8d 95 d0 fe ff
	ff		 lea	 edx, DWORD PTR $T4[ebp]
  0039b	52		 push	 edx
  0039c	8d 85 c4 fe ff
	ff		 lea	 eax, DWORD PTR $T3[ebp]
  003a2	50		 push	 eax
  003a3	e8 00 00 00 00	 call	 ?eq_int_type@?$_Narrow_char_traits@DH@std@@SA_NABH0@Z ; std::_Narrow_char_traits<char,int>::eq_int_type
  003a8	83 c4 08	 add	 esp, 8
  003ab	0f b6 c8	 movzx	 ecx, al
  003ae	85 c9		 test	 ecx, ecx
  003b0	74 0b		 je	 SHORT $LN15@operator

; 791  :                     _State |= ios_base::badbit; // insertion failed, quit

  003b2	8b 45 e4	 mov	 eax, DWORD PTR __State$[ebp]
  003b5	83 c8 04	 or	 eax, 4
  003b8	89 45 e4	 mov	 DWORD PTR __State$[ebp], eax

; 792  :                     break;

  003bb	eb 05		 jmp	 SHORT $LN14@operator
$LN15@operator:

; 793  :                 }
; 794  :             }

  003bd	e9 2d ff ff ff	 jmp	 $LN5@operator
$LN14@operator:

; 795  :         }
; 796  : 
; 797  :         _Ostr.width(0);

  003c2	8b f4		 mov	 esi, esp
  003c4	6a 00		 push	 0
  003c6	6a 00		 push	 0
  003c8	8b 45 08	 mov	 eax, DWORD PTR __Ostr$[ebp]
  003cb	8b 08		 mov	 ecx, DWORD PTR [eax]
  003cd	8b 55 08	 mov	 edx, DWORD PTR __Ostr$[ebp]
  003d0	03 51 04	 add	 edx, DWORD PTR [ecx+4]
  003d3	8b ca		 mov	 ecx, edx
  003d5	ff 15 00 00 00
	00		 call	 DWORD PTR __imp_?width@ios_base@std@@QAE_J_J@Z
  003db	3b f4		 cmp	 esi, esp
  003dd	e8 00 00 00 00	 call	 __RTC_CheckEsp
  003e2	eb 26		 jmp	 SHORT $LN19@operator
__catch$??$?6U?$char_traits@D@std@@@std@@YAAAV?$basic_ostream@DU?$char_traits@D@std@@@0@AAV10@PBD@Z$0:

; 798  :         _CATCH_IO_(ios_base, _Ostr)

  003e4	8b f4		 mov	 esi, esp
  003e6	6a 01		 push	 1
  003e8	6a 04		 push	 4
  003ea	8b 45 08	 mov	 eax, DWORD PTR __Ostr$[ebp]
  003ed	8b 08		 mov	 ecx, DWORD PTR [eax]
  003ef	8b 55 08	 mov	 edx, DWORD PTR __Ostr$[ebp]
  003f2	03 51 04	 add	 edx, DWORD PTR [ecx+4]
  003f5	8b ca		 mov	 ecx, edx
  003f7	ff 15 00 00 00
	00		 call	 DWORD PTR __imp_?setstate@?$basic_ios@DU?$char_traits@D@std@@@std@@QAEXH_N@Z
  003fd	3b f4		 cmp	 esi, esp
  003ff	e8 00 00 00 00	 call	 __RTC_CheckEsp
  00404	b8 00 00 00 00	 mov	 eax, $LN23@operator
  00409	c3		 ret	 0
$LN19@operator:
  0040a	c7 45 fc 00 00
	00 00		 mov	 DWORD PTR __$EHRec$[ebp+12], 0
  00411	eb 07		 jmp	 SHORT $LN9@operator
$LN23@operator:
  00413	c7 45 fc 00 00
	00 00		 mov	 DWORD PTR __$EHRec$[ebp+12], 0
$LN9@operator:

; 799  :     }
; 800  : 
; 801  :     _Ostr.setstate(_State);

  0041a	8b f4		 mov	 esi, esp
  0041c	6a 00		 push	 0
  0041e	8b 45 e4	 mov	 eax, DWORD PTR __State$[ebp]
  00421	50		 push	 eax
  00422	8b 4d 08	 mov	 ecx, DWORD PTR __Ostr$[ebp]
  00425	8b 11		 mov	 edx, DWORD PTR [ecx]
  00427	8b 4d 08	 mov	 ecx, DWORD PTR __Ostr$[ebp]
  0042a	03 4a 04	 add	 ecx, DWORD PTR [edx+4]
  0042d	ff 15 00 00 00
	00		 call	 DWORD PTR __imp_?setstate@?$basic_ios@DU?$char_traits@D@std@@@std@@QAEXH_N@Z
  00433	3b f4		 cmp	 esi, esp
  00435	e8 00 00 00 00	 call	 __RTC_CheckEsp

; 802  :     return _Ostr;

  0043a	8b 45 08	 mov	 eax, DWORD PTR __Ostr$[ebp]
  0043d	89 85 b8 fe ff
	ff		 mov	 DWORD PTR $T2[ebp], eax
  00443	c7 45 fc ff ff
	ff ff		 mov	 DWORD PTR __$EHRec$[ebp+12], -1
  0044a	8d 4d b4	 lea	 ecx, DWORD PTR __Ok$[ebp]
  0044d	e8 00 00 00 00	 call	 ??1sentry@?$basic_ostream@DU?$char_traits@D@std@@@std@@QAE@XZ ; std::basic_ostream<char,std::char_traits<char> >::sentry::~sentry
  00452	8b 85 b8 fe ff
	ff		 mov	 eax, DWORD PTR $T2[ebp]

; 803  : }

  00458	52		 push	 edx
  00459	8b cd		 mov	 ecx, ebp
  0045b	50		 push	 eax
  0045c	8d 15 00 00 00
	00		 lea	 edx, DWORD PTR $LN32@operator
  00462	e8 00 00 00 00	 call	 @_RTC_CheckStackVars@8
  00467	58		 pop	 eax
  00468	5a		 pop	 edx
  00469	8b 4d f4	 mov	 ecx, DWORD PTR __$EHRec$[ebp+4]
  0046c	64 89 0d 00 00
	00 00		 mov	 DWORD PTR fs:0, ecx
  00473	59		 pop	 ecx
  00474	5f		 pop	 edi
  00475	5e		 pop	 esi
  00476	5b		 pop	 ebx
  00477	8b 4d ec	 mov	 ecx, DWORD PTR __$ArrayPad$[ebp]
  0047a	33 cd		 xor	 ecx, ebp
  0047c	e8 00 00 00 00	 call	 @__security_check_cookie@4
  00481	81 c4 64 01 00
	00		 add	 esp, 356		; 00000164H
  00487	3b ec		 cmp	 ebp, esp
  00489	e8 00 00 00 00	 call	 __RTC_CheckEsp
  0048e	8b e5		 mov	 esp, ebp
  00490	5d		 pop	 ebp
  00491	c3		 ret	 0
  00492	66 90		 npad	 2
$LN32@operator:
  00494	01 00 00 00	 DD	 1
  00498	00 00 00 00	 DD	 $LN31@operator
$LN31@operator:
  0049c	b4 ff ff ff	 DD	 -76			; ffffffb4H
  004a0	08 00 00 00	 DD	 8
  004a4	00 00 00 00	 DD	 $LN29@operator
$LN29@operator:
  004a8	5f		 DB	 95			; 0000005fH
  004a9	4f		 DB	 79			; 0000004fH
  004aa	6b		 DB	 107			; 0000006bH
  004ab	00		 DB	 0
_TEXT	ENDS
;	COMDAT text$x
text$x	SEGMENT
__unwindfunclet$??$?6U?$char_traits@D@std@@@std@@YAAAV?$basic_ostream@DU?$char_traits@D@std@@@0@AAV10@PBD@Z$2:
  00000	8d 4d b4	 lea	 ecx, DWORD PTR __Ok$[ebp]
  00003	e9 00 00 00 00	 jmp	 ??1sentry@?$basic_ostream@DU?$char_traits@D@std@@@std@@QAE@XZ ; std::basic_ostream<char,std::char_traits<char> >::sentry::~sentry
  00008	cc		 int	 3
  00009	cc		 int	 3
  0000a	cc		 int	 3
  0000b	cc		 int	 3
  0000c	cc		 int	 3
__ehhandler$??$?6U?$char_traits@D@std@@@std@@YAAAV?$basic_ostream@DU?$char_traits@D@std@@@0@AAV10@PBD@Z:
  0000d	90		 npad	 1
  0000e	90		 npad	 1
  0000f	8b 54 24 08	 mov	 edx, DWORD PTR [esp+8]
  00013	8d 42 0c	 lea	 eax, DWORD PTR [edx+12]
  00016	8b 8a 98 fe ff
	ff		 mov	 ecx, DWORD PTR [edx-360]
  0001c	33 c8		 xor	 ecx, eax
  0001e	e8 00 00 00 00	 call	 @__security_check_cookie@4
  00023	8b 4a f8	 mov	 ecx, DWORD PTR [edx-8]
  00026	33 c8		 xor	 ecx, eax
  00028	e8 00 00 00 00	 call	 @__security_check_cookie@4
  0002d	b8 00 00 00 00	 mov	 eax, OFFSET __ehfuncinfo$??$?6U?$char_traits@D@std@@@std@@YAAAV?$basic_ostream@DU?$char_traits@D@std@@@0@AAV10@PBD@Z
  00032	e9 00 00 00 00	 jmp	 ___CxxFrameHandler3
text$x	ENDS
??$?6U?$char_traits@D@std@@@std@@YAAAV?$basic_ostream@DU?$char_traits@D@std@@@0@AAV10@PBD@Z ENDP ; std::operator<<<std::char_traits<char> >
; Function compile flags: /Odtp /RTCsu /ZI
; File D:\BSTU\2 sem\KPO\Labs\1 lab\lab1\first task\DATA_CHECK.cpp
;	COMDAT ?date_check@@YA_NV?$basic_string@DU?$char_traits@D@std@@V?$allocator@D@2@@std@@@Z
_TEXT	SEGMENT
$T1 = -233						; size = 1
$T2 = -221						; size = 1
$T3 = -209						; size = 1
_i$4 = -8						; size = 4
_date$ = 8						; size = 28
?date_check@@YA_NV?$basic_string@DU?$char_traits@D@std@@V?$allocator@D@2@@std@@@Z PROC ; date_check, COMDAT

; 5    : bool date_check(string date) {

  00000	55		 push	 ebp
  00001	8b ec		 mov	 ebp, esp
  00003	81 ec f0 00 00
	00		 sub	 esp, 240		; 000000f0H
  00009	53		 push	 ebx
  0000a	56		 push	 esi
  0000b	57		 push	 edi
  0000c	8d 7d d0	 lea	 edi, DWORD PTR [ebp-48]
  0000f	b9 0c 00 00 00	 mov	 ecx, 12			; 0000000cH
  00014	b8 cc cc cc cc	 mov	 eax, -858993460		; ccccccccH
  00019	f3 ab		 rep stosd
  0001b	b9 00 00 00 00	 mov	 ecx, OFFSET __C2A978EA_DATA_CHECK@cpp
  00020	e8 00 00 00 00	 call	 @__CheckForDebuggerJustMyCode@4

; 6    :     if (date.size() != 8) { return 0; }

  00025	8d 4d 08	 lea	 ecx, DWORD PTR _date$[ebp]
  00028	e8 00 00 00 00	 call	 ?size@?$basic_string@DU?$char_traits@D@std@@V?$allocator@D@2@@std@@QBEIXZ ; std::basic_string<char,std::char_traits<char>,std::allocator<char> >::size
  0002d	83 f8 08	 cmp	 eax, 8
  00030	74 17		 je	 SHORT $LN5@date_check
  00032	c6 85 2f ff ff
	ff 00		 mov	 BYTE PTR $T3[ebp], 0
  00039	8d 4d 08	 lea	 ecx, DWORD PTR _date$[ebp]
  0003c	e8 00 00 00 00	 call	 ??1?$basic_string@DU?$char_traits@D@std@@V?$allocator@D@2@@std@@QAE@XZ ; std::basic_string<char,std::char_traits<char>,std::allocator<char> >::~basic_string<char,std::char_traits<char>,std::allocator<char> >
  00041	8a 85 2f ff ff
	ff		 mov	 al, BYTE PTR $T3[ebp]
  00047	eb 6e		 jmp	 SHORT $LN1@date_check
$LN5@date_check:

; 7    :     for (int i = 0; i < 8; i++) {

  00049	c7 45 f8 00 00
	00 00		 mov	 DWORD PTR _i$4[ebp], 0
  00050	eb 09		 jmp	 SHORT $LN4@date_check
$LN2@date_check:
  00052	8b 45 f8	 mov	 eax, DWORD PTR _i$4[ebp]
  00055	83 c0 01	 add	 eax, 1
  00058	89 45 f8	 mov	 DWORD PTR _i$4[ebp], eax
$LN4@date_check:
  0005b	83 7d f8 08	 cmp	 DWORD PTR _i$4[ebp], 8
  0005f	7d 41		 jge	 SHORT $LN3@date_check

; 8    :         if (date[i] > '9' || date[i] < '0') { return 0; }

  00061	8b 45 f8	 mov	 eax, DWORD PTR _i$4[ebp]
  00064	50		 push	 eax
  00065	8d 4d 08	 lea	 ecx, DWORD PTR _date$[ebp]
  00068	e8 00 00 00 00	 call	 ??A?$basic_string@DU?$char_traits@D@std@@V?$allocator@D@2@@std@@QAEAADI@Z ; std::basic_string<char,std::char_traits<char>,std::allocator<char> >::operator[]
  0006d	0f be 08	 movsx	 ecx, BYTE PTR [eax]
  00070	83 f9 39	 cmp	 ecx, 57			; 00000039H
  00073	7f 14		 jg	 SHORT $LN7@date_check
  00075	8b 45 f8	 mov	 eax, DWORD PTR _i$4[ebp]
  00078	50		 push	 eax
  00079	8d 4d 08	 lea	 ecx, DWORD PTR _date$[ebp]
  0007c	e8 00 00 00 00	 call	 ??A?$basic_string@DU?$char_traits@D@std@@V?$allocator@D@2@@std@@QAEAADI@Z ; std::basic_string<char,std::char_traits<char>,std::allocator<char> >::operator[]
  00081	0f be 08	 movsx	 ecx, BYTE PTR [eax]
  00084	83 f9 30	 cmp	 ecx, 48			; 00000030H
  00087	7d 17		 jge	 SHORT $LN6@date_check
$LN7@date_check:
  00089	c6 85 23 ff ff
	ff 00		 mov	 BYTE PTR $T2[ebp], 0
  00090	8d 4d 08	 lea	 ecx, DWORD PTR _date$[ebp]
  00093	e8 00 00 00 00	 call	 ??1?$basic_string@DU?$char_traits@D@std@@V?$allocator@D@2@@std@@QAE@XZ ; std::basic_string<char,std::char_traits<char>,std::allocator<char> >::~basic_string<char,std::char_traits<char>,std::allocator<char> >
  00098	8a 85 23 ff ff
	ff		 mov	 al, BYTE PTR $T2[ebp]
  0009e	eb 17		 jmp	 SHORT $LN1@date_check
$LN6@date_check:

; 9    :     }

  000a0	eb b0		 jmp	 SHORT $LN2@date_check
$LN3@date_check:

; 10   :     return 1;

  000a2	c6 85 17 ff ff
	ff 01		 mov	 BYTE PTR $T1[ebp], 1
  000a9	8d 4d 08	 lea	 ecx, DWORD PTR _date$[ebp]
  000ac	e8 00 00 00 00	 call	 ??1?$basic_string@DU?$char_traits@D@std@@V?$allocator@D@2@@std@@QAE@XZ ; std::basic_string<char,std::char_traits<char>,std::allocator<char> >::~basic_string<char,std::char_traits<char>,std::allocator<char> >
  000b1	8a 85 17 ff ff
	ff		 mov	 al, BYTE PTR $T1[ebp]
$LN1@date_check:

; 11   : }

  000b7	5f		 pop	 edi
  000b8	5e		 pop	 esi
  000b9	5b		 pop	 ebx
  000ba	81 c4 f0 00 00
	00		 add	 esp, 240		; 000000f0H
  000c0	3b ec		 cmp	 ebp, esp
  000c2	e8 00 00 00 00	 call	 __RTC_CheckEsp
  000c7	8b e5		 mov	 esp, ebp
  000c9	5d		 pop	 ebp
  000ca	c3		 ret	 0
?date_check@@YA_NV?$basic_string@DU?$char_traits@D@std@@V?$allocator@D@2@@std@@@Z ENDP ; date_check
_TEXT	ENDS
; Function compile flags: /Odtp /RTCsu /ZI
; File D:\BSTU\2 sem\KPO\Labs\1 lab\lab1\first task\DATA_CHECK.cpp
;	COMDAT ?birthday_data_check@@YA_NHHH@Z
_TEXT	SEGMENT
_check_d$ = -17						; size = 1
_check$ = -5						; size = 1
_day$ = 8						; size = 4
_month$ = 12						; size = 4
_year$ = 16						; size = 4
?birthday_data_check@@YA_NHHH@Z PROC			; birthday_data_check, COMDAT

; 32   : bool birthday_data_check(int day, int month, int year) {

  00000	55		 push	 ebp
  00001	8b ec		 mov	 ebp, esp
  00003	81 ec d8 00 00
	00		 sub	 esp, 216		; 000000d8H
  00009	53		 push	 ebx
  0000a	56		 push	 esi
  0000b	57		 push	 edi
  0000c	8d 7d e8	 lea	 edi, DWORD PTR [ebp-24]
  0000f	b9 06 00 00 00	 mov	 ecx, 6
  00014	b8 cc cc cc cc	 mov	 eax, -858993460		; ccccccccH
  00019	f3 ab		 rep stosd
  0001b	b9 00 00 00 00	 mov	 ecx, OFFSET __C2A978EA_DATA_CHECK@cpp
  00020	e8 00 00 00 00	 call	 @__CheckForDebuggerJustMyCode@4

; 33   :     bool check = true, check_d = true;

  00025	c6 45 fb 01	 mov	 BYTE PTR _check$[ebp], 1
  00029	c6 45 ef 01	 mov	 BYTE PTR _check_d$[ebp], 1

; 34   :     if (month < 1 || month > 12) { cout << "  " << endl; check = false; }

  0002d	83 7d 0c 01	 cmp	 DWORD PTR _month$[ebp], 1
  00031	7c 06		 jl	 SHORT $LN3@birthday_d
  00033	83 7d 0c 0c	 cmp	 DWORD PTR _month$[ebp], 12 ; 0000000cH
  00037	7e 2d		 jle	 SHORT $LN2@birthday_d
$LN3@birthday_d:
  00039	8b f4		 mov	 esi, esp
  0003b	68 00 00 00 00	 push	 OFFSET ??$endl@DU?$char_traits@D@std@@@std@@YAAAV?$basic_ostream@DU?$char_traits@D@std@@@0@AAV10@@Z ; std::endl<char,std::char_traits<char> >
  00040	68 00 00 00 00	 push	 OFFSET ??_C@_0BK@IFNNDDB@?S?j?$OA?g?$OA?m?5?m?e?o?p?$OA?b?h?k?$PM?m?$PL?i?5?l?e?q?$PP?v@
  00045	a1 00 00 00 00	 mov	 eax, DWORD PTR __imp_?cout@std@@3V?$basic_ostream@DU?$char_traits@D@std@@@1@A
  0004a	50		 push	 eax
  0004b	e8 00 00 00 00	 call	 ??$?6U?$char_traits@D@std@@@std@@YAAAV?$basic_ostream@DU?$char_traits@D@std@@@0@AAV10@PBD@Z ; std::operator<<<std::char_traits<char> >
  00050	83 c4 08	 add	 esp, 8
  00053	8b c8		 mov	 ecx, eax
  00055	ff 15 00 00 00
	00		 call	 DWORD PTR __imp_??6?$basic_ostream@DU?$char_traits@D@std@@@std@@QAEAAV01@P6AAAV01@AAV01@@Z@Z
  0005b	3b f4		 cmp	 esi, esp
  0005d	e8 00 00 00 00	 call	 __RTC_CheckEsp
  00062	c6 45 fb 00	 mov	 BYTE PTR _check$[ebp], 0
$LN2@birthday_d:

; 35   :     if (LEAP_YEAR_CHECK(year) && month == 2 && day == 29) { check_d = true; }

  00066	8b 45 10	 mov	 eax, DWORD PTR _year$[ebp]
  00069	50		 push	 eax
  0006a	e8 00 00 00 00	 call	 ?LEAP_YEAR_CHECK@@YA_NH@Z ; LEAP_YEAR_CHECK
  0006f	83 c4 04	 add	 esp, 4
  00072	0f b6 c8	 movzx	 ecx, al
  00075	85 c9		 test	 ecx, ecx
  00077	74 12		 je	 SHORT $LN4@birthday_d
  00079	83 7d 0c 02	 cmp	 DWORD PTR _month$[ebp], 2
  0007d	75 0c		 jne	 SHORT $LN4@birthday_d
  0007f	83 7d 08 1d	 cmp	 DWORD PTR _day$[ebp], 29 ; 0000001dH
  00083	75 06		 jne	 SHORT $LN4@birthday_d
  00085	c6 45 ef 01	 mov	 BYTE PTR _check_d$[ebp], 1
  00089	eb 42		 jmp	 SHORT $LN5@birthday_d
$LN4@birthday_d:

; 36   :     else if (day > days_in_month[month - 1] || day < 1) { cout << "  " << endl; check_d = false; }

  0008b	8b 45 0c	 mov	 eax, DWORD PTR _month$[ebp]
  0008e	8b 4d 08	 mov	 ecx, DWORD PTR _day$[ebp]
  00091	3b 0c 85 fc ff
	ff ff		 cmp	 ecx, DWORD PTR ?days_in_month@@3PAHA[eax*4-4]
  00098	7f 06		 jg	 SHORT $LN7@birthday_d
  0009a	83 7d 08 01	 cmp	 DWORD PTR _day$[ebp], 1
  0009e	7d 2d		 jge	 SHORT $LN5@birthday_d
$LN7@birthday_d:
  000a0	8b f4		 mov	 esi, esp
  000a2	68 00 00 00 00	 push	 OFFSET ??$endl@DU?$char_traits@D@std@@@std@@YAAAV?$basic_ostream@DU?$char_traits@D@std@@@0@AAV10@@Z ; std::endl<char,std::char_traits<char> >
  000a7	68 00 00 00 00	 push	 OFFSET ??_C@_0BJ@GKFBAJHC@?S?j?$OA?g?$OA?m?5?m?e?o?p?$OA?b?h?k?$PM?m?$PL?i?5?d?e?m?$PM@
  000ac	a1 00 00 00 00	 mov	 eax, DWORD PTR __imp_?cout@std@@3V?$basic_ostream@DU?$char_traits@D@std@@@1@A
  000b1	50		 push	 eax
  000b2	e8 00 00 00 00	 call	 ??$?6U?$char_traits@D@std@@@std@@YAAAV?$basic_ostream@DU?$char_traits@D@std@@@0@AAV10@PBD@Z ; std::operator<<<std::char_traits<char> >
  000b7	83 c4 08	 add	 esp, 8
  000ba	8b c8		 mov	 ecx, eax
  000bc	ff 15 00 00 00
	00		 call	 DWORD PTR __imp_??6?$basic_ostream@DU?$char_traits@D@std@@@std@@QAEAAV01@P6AAAV01@AAV01@@Z@Z
  000c2	3b f4		 cmp	 esi, esp
  000c4	e8 00 00 00 00	 call	 __RTC_CheckEsp
  000c9	c6 45 ef 00	 mov	 BYTE PTR _check_d$[ebp], 0
$LN5@birthday_d:

; 37   :     if (check && check_d) { return true; }

  000cd	0f b6 45 fb	 movzx	 eax, BYTE PTR _check$[ebp]
  000d1	85 c0		 test	 eax, eax
  000d3	74 0e		 je	 SHORT $LN8@birthday_d
  000d5	0f b6 45 ef	 movzx	 eax, BYTE PTR _check_d$[ebp]
  000d9	85 c0		 test	 eax, eax
  000db	74 06		 je	 SHORT $LN8@birthday_d
  000dd	b0 01		 mov	 al, 1
  000df	eb 04		 jmp	 SHORT $LN1@birthday_d
  000e1	eb 02		 jmp	 SHORT $LN1@birthday_d
$LN8@birthday_d:

; 38   :     else { return false; }

  000e3	32 c0		 xor	 al, al
$LN1@birthday_d:

; 39   : }

  000e5	5f		 pop	 edi
  000e6	5e		 pop	 esi
  000e7	5b		 pop	 ebx
  000e8	81 c4 d8 00 00
	00		 add	 esp, 216		; 000000d8H
  000ee	3b ec		 cmp	 ebp, esp
  000f0	e8 00 00 00 00	 call	 __RTC_CheckEsp
  000f5	8b e5		 mov	 esp, ebp
  000f7	5d		 pop	 ebp
  000f8	c3		 ret	 0
?birthday_data_check@@YA_NHHH@Z ENDP			; birthday_data_check
_TEXT	ENDS
; Function compile flags: /Odtp /RTCsu /ZI
; File D:\BSTU\2 sem\KPO\Labs\1 lab\lab1\first task\DATA_CHECK.cpp
;	COMDAT ?birthday_datecheck@@YA_NV?$basic_string@DU?$char_traits@D@std@@V?$allocator@D@2@@std@@@Z
_TEXT	SEGMENT
$T1 = -233						; size = 1
$T2 = -221						; size = 1
$T3 = -209						; size = 1
_i$4 = -8						; size = 4
_date$ = 8						; size = 28
?birthday_datecheck@@YA_NV?$basic_string@DU?$char_traits@D@std@@V?$allocator@D@2@@std@@@Z PROC ; birthday_datecheck, COMDAT

; 23   : bool birthday_datecheck(string date) {

  00000	55		 push	 ebp
  00001	8b ec		 mov	 ebp, esp
  00003	81 ec f0 00 00
	00		 sub	 esp, 240		; 000000f0H
  00009	53		 push	 ebx
  0000a	56		 push	 esi
  0000b	57		 push	 edi
  0000c	8d 7d d0	 lea	 edi, DWORD PTR [ebp-48]
  0000f	b9 0c 00 00 00	 mov	 ecx, 12			; 0000000cH
  00014	b8 cc cc cc cc	 mov	 eax, -858993460		; ccccccccH
  00019	f3 ab		 rep stosd
  0001b	b9 00 00 00 00	 mov	 ecx, OFFSET __C2A978EA_DATA_CHECK@cpp
  00020	e8 00 00 00 00	 call	 @__CheckForDebuggerJustMyCode@4

; 24   :     if (date.size() != 4) { return 0; }

  00025	8d 4d 08	 lea	 ecx, DWORD PTR _date$[ebp]
  00028	e8 00 00 00 00	 call	 ?size@?$basic_string@DU?$char_traits@D@std@@V?$allocator@D@2@@std@@QBEIXZ ; std::basic_string<char,std::char_traits<char>,std::allocator<char> >::size
  0002d	83 f8 04	 cmp	 eax, 4
  00030	74 17		 je	 SHORT $LN5@birthday_d
  00032	c6 85 2f ff ff
	ff 00		 mov	 BYTE PTR $T3[ebp], 0
  00039	8d 4d 08	 lea	 ecx, DWORD PTR _date$[ebp]
  0003c	e8 00 00 00 00	 call	 ??1?$basic_string@DU?$char_traits@D@std@@V?$allocator@D@2@@std@@QAE@XZ ; std::basic_string<char,std::char_traits<char>,std::allocator<char> >::~basic_string<char,std::char_traits<char>,std::allocator<char> >
  00041	8a 85 2f ff ff
	ff		 mov	 al, BYTE PTR $T3[ebp]
  00047	eb 6e		 jmp	 SHORT $LN1@birthday_d
$LN5@birthday_d:

; 25   :     for (int i = 0; i < 4; i++) {

  00049	c7 45 f8 00 00
	00 00		 mov	 DWORD PTR _i$4[ebp], 0
  00050	eb 09		 jmp	 SHORT $LN4@birthday_d
$LN2@birthday_d:
  00052	8b 45 f8	 mov	 eax, DWORD PTR _i$4[ebp]
  00055	83 c0 01	 add	 eax, 1
  00058	89 45 f8	 mov	 DWORD PTR _i$4[ebp], eax
$LN4@birthday_d:
  0005b	83 7d f8 04	 cmp	 DWORD PTR _i$4[ebp], 4
  0005f	7d 41		 jge	 SHORT $LN3@birthday_d

; 26   :         if (date[i] > '9' || date[i] < '0') { return 0; }

  00061	8b 45 f8	 mov	 eax, DWORD PTR _i$4[ebp]
  00064	50		 push	 eax
  00065	8d 4d 08	 lea	 ecx, DWORD PTR _date$[ebp]
  00068	e8 00 00 00 00	 call	 ??A?$basic_string@DU?$char_traits@D@std@@V?$allocator@D@2@@std@@QAEAADI@Z ; std::basic_string<char,std::char_traits<char>,std::allocator<char> >::operator[]
  0006d	0f be 08	 movsx	 ecx, BYTE PTR [eax]
  00070	83 f9 39	 cmp	 ecx, 57			; 00000039H
  00073	7f 14		 jg	 SHORT $LN7@birthday_d
  00075	8b 45 f8	 mov	 eax, DWORD PTR _i$4[ebp]
  00078	50		 push	 eax
  00079	8d 4d 08	 lea	 ecx, DWORD PTR _date$[ebp]
  0007c	e8 00 00 00 00	 call	 ??A?$basic_string@DU?$char_traits@D@std@@V?$allocator@D@2@@std@@QAEAADI@Z ; std::basic_string<char,std::char_traits<char>,std::allocator<char> >::operator[]
  00081	0f be 08	 movsx	 ecx, BYTE PTR [eax]
  00084	83 f9 30	 cmp	 ecx, 48			; 00000030H
  00087	7d 17		 jge	 SHORT $LN6@birthday_d
$LN7@birthday_d:
  00089	c6 85 23 ff ff
	ff 00		 mov	 BYTE PTR $T2[ebp], 0
  00090	8d 4d 08	 lea	 ecx, DWORD PTR _date$[ebp]
  00093	e8 00 00 00 00	 call	 ??1?$basic_string@DU?$char_traits@D@std@@V?$allocator@D@2@@std@@QAE@XZ ; std::basic_string<char,std::char_traits<char>,std::allocator<char> >::~basic_string<char,std::char_traits<char>,std::allocator<char> >
  00098	8a 85 23 ff ff
	ff		 mov	 al, BYTE PTR $T2[ebp]
  0009e	eb 17		 jmp	 SHORT $LN1@birthday_d
$LN6@birthday_d:

; 27   :     }

  000a0	eb b0		 jmp	 SHORT $LN2@birthday_d
$LN3@birthday_d:

; 28   :     return 1;

  000a2	c6 85 17 ff ff
	ff 01		 mov	 BYTE PTR $T1[ebp], 1
  000a9	8d 4d 08	 lea	 ecx, DWORD PTR _date$[ebp]
  000ac	e8 00 00 00 00	 call	 ??1?$basic_string@DU?$char_traits@D@std@@V?$allocator@D@2@@std@@QAE@XZ ; std::basic_string<char,std::char_traits<char>,std::allocator<char> >::~basic_string<char,std::char_traits<char>,std::allocator<char> >
  000b1	8a 85 17 ff ff
	ff		 mov	 al, BYTE PTR $T1[ebp]
$LN1@birthday_d:

; 29   : 
; 30   : }

  000b7	5f		 pop	 edi
  000b8	5e		 pop	 esi
  000b9	5b		 pop	 ebx
  000ba	81 c4 f0 00 00
	00		 add	 esp, 240		; 000000f0H
  000c0	3b ec		 cmp	 ebp, esp
  000c2	e8 00 00 00 00	 call	 __RTC_CheckEsp
  000c7	8b e5		 mov	 esp, ebp
  000c9	5d		 pop	 ebp
  000ca	c3		 ret	 0
?birthday_datecheck@@YA_NV?$basic_string@DU?$char_traits@D@std@@V?$allocator@D@2@@std@@@Z ENDP ; birthday_datecheck
_TEXT	ENDS
; Function compile flags: /Odtp /RTCsu /ZI
; File D:\BSTU\2 sem\KPO\Labs\1 lab\lab1\first task\DATA_CHECK.cpp
;	COMDAT ?BIRTHDAY_COUNT@@YAHHHHHH@Z
_TEXT	SEGMENT
_countdown$ = -8					; size = 4
_day$ = 8						; size = 4
_month$ = 12						; size = 4
_year$ = 16						; size = 4
_b_day$ = 20						; size = 4
_b_month$ = 24						; size = 4
?BIRTHDAY_COUNT@@YAHHHHHH@Z PROC			; BIRTHDAY_COUNT, COMDAT

; 53   : int BIRTHDAY_COUNT(int day, int month, int year, int b_day, int b_month) {

  00000	55		 push	 ebp
  00001	8b ec		 mov	 ebp, esp
  00003	81 ec cc 00 00
	00		 sub	 esp, 204		; 000000ccH
  00009	53		 push	 ebx
  0000a	56		 push	 esi
  0000b	57		 push	 edi
  0000c	8d 7d f4	 lea	 edi, DWORD PTR [ebp-12]
  0000f	b9 03 00 00 00	 mov	 ecx, 3
  00014	b8 cc cc cc cc	 mov	 eax, -858993460		; ccccccccH
  00019	f3 ab		 rep stosd
  0001b	b9 00 00 00 00	 mov	 ecx, OFFSET __C2A978EA_DATA_CHECK@cpp
  00020	e8 00 00 00 00	 call	 @__CheckForDebuggerJustMyCode@4

; 54   :     int countdown;
; 55   :     countdown = DAY_NUMBER(b_day, b_month) - DAY_NUMBER(day, month);

  00025	8b 45 18	 mov	 eax, DWORD PTR _b_month$[ebp]
  00028	50		 push	 eax
  00029	8b 4d 14	 mov	 ecx, DWORD PTR _b_day$[ebp]
  0002c	51		 push	 ecx
  0002d	e8 00 00 00 00	 call	 ?DAY_NUMBER@@YAHHH@Z	; DAY_NUMBER
  00032	83 c4 08	 add	 esp, 8
  00035	8b f0		 mov	 esi, eax
  00037	8b 55 0c	 mov	 edx, DWORD PTR _month$[ebp]
  0003a	52		 push	 edx
  0003b	8b 45 08	 mov	 eax, DWORD PTR _day$[ebp]
  0003e	50		 push	 eax
  0003f	e8 00 00 00 00	 call	 ?DAY_NUMBER@@YAHHH@Z	; DAY_NUMBER
  00044	83 c4 08	 add	 esp, 8
  00047	2b f0		 sub	 esi, eax
  00049	89 75 f8	 mov	 DWORD PTR _countdown$[ebp], esi

; 56   :     if (countdown == 0) { cout << "HAPPY BIRTHDAY!!!"; return 1000; }

  0004c	75 1a		 jne	 SHORT $LN2@BIRTHDAY_C
  0004e	68 00 00 00 00	 push	 OFFSET ??_C@_0BC@GGJMFGDD@HAPPY?5BIRTHDAY?$CB?$CB?$CB@
  00053	a1 00 00 00 00	 mov	 eax, DWORD PTR __imp_?cout@std@@3V?$basic_ostream@DU?$char_traits@D@std@@@1@A
  00058	50		 push	 eax
  00059	e8 00 00 00 00	 call	 ??$?6U?$char_traits@D@std@@@std@@YAAAV?$basic_ostream@DU?$char_traits@D@std@@@0@AAV10@PBD@Z ; std::operator<<<std::char_traits<char> >
  0005e	83 c4 08	 add	 esp, 8
  00061	b8 e8 03 00 00	 mov	 eax, 1000		; 000003e8H
  00066	eb 6f		 jmp	 SHORT $LN1@BIRTHDAY_C
$LN2@BIRTHDAY_C:

; 57   : 
; 58   :     if (countdown > 0) {

  00068	83 7d f8 00	 cmp	 DWORD PTR _countdown$[ebp], 0
  0006c	7e 2f		 jle	 SHORT $LN3@BIRTHDAY_C

; 59   :         if (LEAP_YEAR_CHECK(year)) {

  0006e	8b 45 10	 mov	 eax, DWORD PTR _year$[ebp]
  00071	50		 push	 eax
  00072	e8 00 00 00 00	 call	 ?LEAP_YEAR_CHECK@@YA_NH@Z ; LEAP_YEAR_CHECK
  00077	83 c4 04	 add	 esp, 4
  0007a	0f b6 c8	 movzx	 ecx, al
  0007d	85 c9		 test	 ecx, ecx
  0007f	74 15		 je	 SHORT $LN5@BIRTHDAY_C

; 60   :             if (month <= 2 && b_month > 2) { countdown++; }

  00081	83 7d 0c 02	 cmp	 DWORD PTR _month$[ebp], 2
  00085	7f 0f		 jg	 SHORT $LN5@BIRTHDAY_C
  00087	83 7d 18 02	 cmp	 DWORD PTR _b_month$[ebp], 2
  0008b	7e 09		 jle	 SHORT $LN5@BIRTHDAY_C
  0008d	8b 45 f8	 mov	 eax, DWORD PTR _countdown$[ebp]
  00090	83 c0 01	 add	 eax, 1
  00093	89 45 f8	 mov	 DWORD PTR _countdown$[ebp], eax
$LN5@BIRTHDAY_C:

; 61   :         }
; 62   :         return countdown;

  00096	8b 45 f8	 mov	 eax, DWORD PTR _countdown$[ebp]
  00099	eb 3c		 jmp	 SHORT $LN1@BIRTHDAY_C

; 63   :     }

  0009b	eb 3a		 jmp	 SHORT $LN1@BIRTHDAY_C
$LN3@BIRTHDAY_C:

; 64   :     else {
; 65   :         if (LEAP_YEAR_CHECK(year + 1)) {

  0009d	8b 45 10	 mov	 eax, DWORD PTR _year$[ebp]
  000a0	83 c0 01	 add	 eax, 1
  000a3	50		 push	 eax
  000a4	e8 00 00 00 00	 call	 ?LEAP_YEAR_CHECK@@YA_NH@Z ; LEAP_YEAR_CHECK
  000a9	83 c4 04	 add	 esp, 4
  000ac	0f b6 c8	 movzx	 ecx, al
  000af	85 c9		 test	 ecx, ecx
  000b1	74 0f		 je	 SHORT $LN7@BIRTHDAY_C

; 66   :             if (b_month > 2) { countdown++; }

  000b3	83 7d 18 02	 cmp	 DWORD PTR _b_month$[ebp], 2
  000b7	7e 09		 jle	 SHORT $LN7@BIRTHDAY_C
  000b9	8b 45 f8	 mov	 eax, DWORD PTR _countdown$[ebp]
  000bc	83 c0 01	 add	 eax, 1
  000bf	89 45 f8	 mov	 DWORD PTR _countdown$[ebp], eax
$LN7@BIRTHDAY_C:

; 67   :         }
; 68   :         return 365 - abs(countdown);

  000c2	8b 45 f8	 mov	 eax, DWORD PTR _countdown$[ebp]
  000c5	50		 push	 eax
  000c6	e8 00 00 00 00	 call	 _abs
  000cb	83 c4 04	 add	 esp, 4
  000ce	b9 6d 01 00 00	 mov	 ecx, 365		; 0000016dH
  000d3	2b c8		 sub	 ecx, eax
  000d5	8b c1		 mov	 eax, ecx
$LN1@BIRTHDAY_C:

; 69   :     }
; 70   : }

  000d7	5f		 pop	 edi
  000d8	5e		 pop	 esi
  000d9	5b		 pop	 ebx
  000da	81 c4 cc 00 00
	00		 add	 esp, 204		; 000000ccH
  000e0	3b ec		 cmp	 ebp, esp
  000e2	e8 00 00 00 00	 call	 __RTC_CheckEsp
  000e7	8b e5		 mov	 esp, ebp
  000e9	5d		 pop	 ebp
  000ea	c3		 ret	 0
?BIRTHDAY_COUNT@@YAHHHHHH@Z ENDP			; BIRTHDAY_COUNT
_TEXT	ENDS
; Function compile flags: /Odtp /RTCsu /ZI
; File D:\BSTU\2 sem\KPO\Labs\1 lab\lab1\first task\DATA_CHECK.cpp
;	COMDAT ?DAY_NUMBER@@YAHHH@Z
_TEXT	SEGMENT
_i$1 = -20						; size = 4
_count$ = -8						; size = 4
_day$ = 8						; size = 4
_month$ = 12						; size = 4
?DAY_NUMBER@@YAHHH@Z PROC				; DAY_NUMBER, COMDAT

; 44   : int DAY_NUMBER(int day, int month) {

  00000	55		 push	 ebp
  00001	8b ec		 mov	 ebp, esp
  00003	81 ec d8 00 00
	00		 sub	 esp, 216		; 000000d8H
  00009	53		 push	 ebx
  0000a	56		 push	 esi
  0000b	57		 push	 edi
  0000c	8d 7d e8	 lea	 edi, DWORD PTR [ebp-24]
  0000f	b9 06 00 00 00	 mov	 ecx, 6
  00014	b8 cc cc cc cc	 mov	 eax, -858993460		; ccccccccH
  00019	f3 ab		 rep stosd
  0001b	b9 00 00 00 00	 mov	 ecx, OFFSET __C2A978EA_DATA_CHECK@cpp
  00020	e8 00 00 00 00	 call	 @__CheckForDebuggerJustMyCode@4

; 45   :     int count = 0;

  00025	c7 45 f8 00 00
	00 00		 mov	 DWORD PTR _count$[ebp], 0

; 46   :     for (int i = 0; i < month - 1; i++) {

  0002c	c7 45 ec 00 00
	00 00		 mov	 DWORD PTR _i$1[ebp], 0
  00033	eb 09		 jmp	 SHORT $LN4@DAY_NUMBER
$LN2@DAY_NUMBER:
  00035	8b 45 ec	 mov	 eax, DWORD PTR _i$1[ebp]
  00038	83 c0 01	 add	 eax, 1
  0003b	89 45 ec	 mov	 DWORD PTR _i$1[ebp], eax
$LN4@DAY_NUMBER:
  0003e	8b 45 0c	 mov	 eax, DWORD PTR _month$[ebp]
  00041	83 e8 01	 sub	 eax, 1
  00044	39 45 ec	 cmp	 DWORD PTR _i$1[ebp], eax
  00047	7d 12		 jge	 SHORT $LN3@DAY_NUMBER

; 47   :         count += days_in_month[i];

  00049	8b 45 ec	 mov	 eax, DWORD PTR _i$1[ebp]
  0004c	8b 4d f8	 mov	 ecx, DWORD PTR _count$[ebp]
  0004f	03 0c 85 00 00
	00 00		 add	 ecx, DWORD PTR ?days_in_month@@3PAHA[eax*4]
  00056	89 4d f8	 mov	 DWORD PTR _count$[ebp], ecx

; 48   :     }

  00059	eb da		 jmp	 SHORT $LN2@DAY_NUMBER
$LN3@DAY_NUMBER:

; 49   :     count += day;

  0005b	8b 45 f8	 mov	 eax, DWORD PTR _count$[ebp]
  0005e	03 45 08	 add	 eax, DWORD PTR _day$[ebp]
  00061	89 45 f8	 mov	 DWORD PTR _count$[ebp], eax

; 50   :     return count;

  00064	8b 45 f8	 mov	 eax, DWORD PTR _count$[ebp]

; 51   : }

  00067	5f		 pop	 edi
  00068	5e		 pop	 esi
  00069	5b		 pop	 ebx
  0006a	81 c4 d8 00 00
	00		 add	 esp, 216		; 000000d8H
  00070	3b ec		 cmp	 ebp, esp
  00072	e8 00 00 00 00	 call	 __RTC_CheckEsp
  00077	8b e5		 mov	 esp, ebp
  00079	5d		 pop	 ebp
  0007a	c3		 ret	 0
?DAY_NUMBER@@YAHHH@Z ENDP				; DAY_NUMBER
_TEXT	ENDS
; Function compile flags: /Odtp /RTCsu /ZI
; File D:\BSTU\2 sem\KPO\Labs\1 lab\lab1\first task\DATA_CHECK.cpp
;	COMDAT ?data_check@@YA_NHHH@Z
_TEXT	SEGMENT
_check_d$ = -17						; size = 1
_check$ = -5						; size = 1
_day$ = 8						; size = 4
_month$ = 12						; size = 4
_year$ = 16						; size = 4
?data_check@@YA_NHHH@Z PROC				; data_check, COMDAT

; 13   : bool data_check(int day, int month, int year ) {

  00000	55		 push	 ebp
  00001	8b ec		 mov	 ebp, esp
  00003	81 ec d8 00 00
	00		 sub	 esp, 216		; 000000d8H
  00009	53		 push	 ebx
  0000a	56		 push	 esi
  0000b	57		 push	 edi
  0000c	8d 7d e8	 lea	 edi, DWORD PTR [ebp-24]
  0000f	b9 06 00 00 00	 mov	 ecx, 6
  00014	b8 cc cc cc cc	 mov	 eax, -858993460		; ccccccccH
  00019	f3 ab		 rep stosd
  0001b	b9 00 00 00 00	 mov	 ecx, OFFSET __C2A978EA_DATA_CHECK@cpp
  00020	e8 00 00 00 00	 call	 @__CheckForDebuggerJustMyCode@4

; 14   :     bool check = true, check_d = true;

  00025	c6 45 fb 01	 mov	 BYTE PTR _check$[ebp], 1
  00029	c6 45 ef 01	 mov	 BYTE PTR _check_d$[ebp], 1

; 15   :     if (year == 0) { { cout << "  " << endl; check = false; } }

  0002d	83 7d 10 00	 cmp	 DWORD PTR _year$[ebp], 0
  00031	75 2d		 jne	 SHORT $LN2@data_check
  00033	8b f4		 mov	 esi, esp
  00035	68 00 00 00 00	 push	 OFFSET ??$endl@DU?$char_traits@D@std@@@std@@YAAAV?$basic_ostream@DU?$char_traits@D@std@@@0@AAV10@@Z ; std::endl<char,std::char_traits<char> >
  0003a	68 00 00 00 00	 push	 OFFSET ??_C@_0BI@BFGCFCDH@?S?j?$OA?g?$OA?m?5?m?e?o?p?$OA?b?h?k?$PM?m?$PL?i?5?c?n?d@
  0003f	a1 00 00 00 00	 mov	 eax, DWORD PTR __imp_?cout@std@@3V?$basic_ostream@DU?$char_traits@D@std@@@1@A
  00044	50		 push	 eax
  00045	e8 00 00 00 00	 call	 ??$?6U?$char_traits@D@std@@@std@@YAAAV?$basic_ostream@DU?$char_traits@D@std@@@0@AAV10@PBD@Z ; std::operator<<<std::char_traits<char> >
  0004a	83 c4 08	 add	 esp, 8
  0004d	8b c8		 mov	 ecx, eax
  0004f	ff 15 00 00 00
	00		 call	 DWORD PTR __imp_??6?$basic_ostream@DU?$char_traits@D@std@@@std@@QAEAAV01@P6AAAV01@AAV01@@Z@Z
  00055	3b f4		 cmp	 esi, esp
  00057	e8 00 00 00 00	 call	 __RTC_CheckEsp
  0005c	c6 45 fb 00	 mov	 BYTE PTR _check$[ebp], 0
$LN2@data_check:

; 16   :     if (month < 1 || month > 12) { cout << "  " << endl; check = false; }

  00060	83 7d 0c 01	 cmp	 DWORD PTR _month$[ebp], 1
  00064	7c 06		 jl	 SHORT $LN4@data_check
  00066	83 7d 0c 0c	 cmp	 DWORD PTR _month$[ebp], 12 ; 0000000cH
  0006a	7e 2d		 jle	 SHORT $LN3@data_check
$LN4@data_check:
  0006c	8b f4		 mov	 esi, esp
  0006e	68 00 00 00 00	 push	 OFFSET ??$endl@DU?$char_traits@D@std@@@std@@YAAAV?$basic_ostream@DU?$char_traits@D@std@@@0@AAV10@@Z ; std::endl<char,std::char_traits<char> >
  00073	68 00 00 00 00	 push	 OFFSET ??_C@_0BK@IFNNDDB@?S?j?$OA?g?$OA?m?5?m?e?o?p?$OA?b?h?k?$PM?m?$PL?i?5?l?e?q?$PP?v@
  00078	a1 00 00 00 00	 mov	 eax, DWORD PTR __imp_?cout@std@@3V?$basic_ostream@DU?$char_traits@D@std@@@1@A
  0007d	50		 push	 eax
  0007e	e8 00 00 00 00	 call	 ??$?6U?$char_traits@D@std@@@std@@YAAAV?$basic_ostream@DU?$char_traits@D@std@@@0@AAV10@PBD@Z ; std::operator<<<std::char_traits<char> >
  00083	83 c4 08	 add	 esp, 8
  00086	8b c8		 mov	 ecx, eax
  00088	ff 15 00 00 00
	00		 call	 DWORD PTR __imp_??6?$basic_ostream@DU?$char_traits@D@std@@@std@@QAEAAV01@P6AAAV01@AAV01@@Z@Z
  0008e	3b f4		 cmp	 esi, esp
  00090	e8 00 00 00 00	 call	 __RTC_CheckEsp
  00095	c6 45 fb 00	 mov	 BYTE PTR _check$[ebp], 0
$LN3@data_check:

; 17   :     if (LEAP_YEAR_CHECK(year) && month == 2 && day == 29) { check_d = true; }

  00099	8b 45 10	 mov	 eax, DWORD PTR _year$[ebp]
  0009c	50		 push	 eax
  0009d	e8 00 00 00 00	 call	 ?LEAP_YEAR_CHECK@@YA_NH@Z ; LEAP_YEAR_CHECK
  000a2	83 c4 04	 add	 esp, 4
  000a5	0f b6 c8	 movzx	 ecx, al
  000a8	85 c9		 test	 ecx, ecx
  000aa	74 12		 je	 SHORT $LN5@data_check
  000ac	83 7d 0c 02	 cmp	 DWORD PTR _month$[ebp], 2
  000b0	75 0c		 jne	 SHORT $LN5@data_check
  000b2	83 7d 08 1d	 cmp	 DWORD PTR _day$[ebp], 29 ; 0000001dH
  000b6	75 06		 jne	 SHORT $LN5@data_check
  000b8	c6 45 ef 01	 mov	 BYTE PTR _check_d$[ebp], 1
  000bc	eb 42		 jmp	 SHORT $LN6@data_check
$LN5@data_check:

; 18   :     else if (day > days_in_month[month - 1] || day < 1) { cout << "  " << endl; check_d = false; }

  000be	8b 45 0c	 mov	 eax, DWORD PTR _month$[ebp]
  000c1	8b 4d 08	 mov	 ecx, DWORD PTR _day$[ebp]
  000c4	3b 0c 85 fc ff
	ff ff		 cmp	 ecx, DWORD PTR ?days_in_month@@3PAHA[eax*4-4]
  000cb	7f 06		 jg	 SHORT $LN8@data_check
  000cd	83 7d 08 01	 cmp	 DWORD PTR _day$[ebp], 1
  000d1	7d 2d		 jge	 SHORT $LN6@data_check
$LN8@data_check:
  000d3	8b f4		 mov	 esi, esp
  000d5	68 00 00 00 00	 push	 OFFSET ??$endl@DU?$char_traits@D@std@@@std@@YAAAV?$basic_ostream@DU?$char_traits@D@std@@@0@AAV10@@Z ; std::endl<char,std::char_traits<char> >
  000da	68 00 00 00 00	 push	 OFFSET ??_C@_0BJ@GKFBAJHC@?S?j?$OA?g?$OA?m?5?m?e?o?p?$OA?b?h?k?$PM?m?$PL?i?5?d?e?m?$PM@
  000df	a1 00 00 00 00	 mov	 eax, DWORD PTR __imp_?cout@std@@3V?$basic_ostream@DU?$char_traits@D@std@@@1@A
  000e4	50		 push	 eax
  000e5	e8 00 00 00 00	 call	 ??$?6U?$char_traits@D@std@@@std@@YAAAV?$basic_ostream@DU?$char_traits@D@std@@@0@AAV10@PBD@Z ; std::operator<<<std::char_traits<char> >
  000ea	83 c4 08	 add	 esp, 8
  000ed	8b c8		 mov	 ecx, eax
  000ef	ff 15 00 00 00
	00		 call	 DWORD PTR __imp_??6?$basic_ostream@DU?$char_traits@D@std@@@std@@QAEAAV01@P6AAAV01@AAV01@@Z@Z
  000f5	3b f4		 cmp	 esi, esp
  000f7	e8 00 00 00 00	 call	 __RTC_CheckEsp
  000fc	c6 45 ef 00	 mov	 BYTE PTR _check_d$[ebp], 0
$LN6@data_check:

; 19   :     if (check && check_d) { return true; }

  00100	0f b6 45 fb	 movzx	 eax, BYTE PTR _check$[ebp]
  00104	85 c0		 test	 eax, eax
  00106	74 0e		 je	 SHORT $LN9@data_check
  00108	0f b6 45 ef	 movzx	 eax, BYTE PTR _check_d$[ebp]
  0010c	85 c0		 test	 eax, eax
  0010e	74 06		 je	 SHORT $LN9@data_check
  00110	b0 01		 mov	 al, 1
  00112	eb 04		 jmp	 SHORT $LN1@data_check
  00114	eb 02		 jmp	 SHORT $LN1@data_check
$LN9@data_check:

; 20   :     else { return false; }

  00116	32 c0		 xor	 al, al
$LN1@data_check:

; 21   : }

  00118	5f		 pop	 edi
  00119	5e		 pop	 esi
  0011a	5b		 pop	 ebx
  0011b	81 c4 d8 00 00
	00		 add	 esp, 216		; 000000d8H
  00121	3b ec		 cmp	 ebp, esp
  00123	e8 00 00 00 00	 call	 __RTC_CheckEsp
  00128	8b e5		 mov	 esp, ebp
  0012a	5d		 pop	 ebp
  0012b	c3		 ret	 0
?data_check@@YA_NHHH@Z ENDP				; data_check
_TEXT	ENDS
; Function compile flags: /Odtp /RTCsu /ZI
;	COMDAT ??1?$_Compressed_pair@V?$allocator@D@std@@V?$_String_val@U?$_Simple_types@D@std@@@2@$00@std@@QAE@XZ
_TEXT	SEGMENT
_this$ = -8						; size = 4
??1?$_Compressed_pair@V?$allocator@D@std@@V?$_String_val@U?$_Simple_types@D@std@@@2@$00@std@@QAE@XZ PROC ; std::_Compressed_pair<std::allocator<char>,std::_String_val<std::_Simple_types<char> >,1>::~_Compressed_pair<std::allocator<char>,std::_String_val<std::_Simple_types<char> >,1>, COMDAT
; _this$ = ecx
  00000	55		 push	 ebp
  00001	8b ec		 mov	 ebp, esp
  00003	81 ec cc 00 00
	00		 sub	 esp, 204		; 000000ccH
  00009	53		 push	 ebx
  0000a	56		 push	 esi
  0000b	57		 push	 edi
  0000c	51		 push	 ecx
  0000d	8d 7d f4	 lea	 edi, DWORD PTR [ebp-12]
  00010	b9 03 00 00 00	 mov	 ecx, 3
  00015	b8 cc cc cc cc	 mov	 eax, -858993460		; ccccccccH
  0001a	f3 ab		 rep stosd
  0001c	59		 pop	 ecx
  0001d	89 4d f8	 mov	 DWORD PTR _this$[ebp], ecx
  00020	8b 4d f8	 mov	 ecx, DWORD PTR _this$[ebp]
  00023	e8 00 00 00 00	 call	 ??1?$_String_val@U?$_Simple_types@D@std@@@std@@QAE@XZ
  00028	5f		 pop	 edi
  00029	5e		 pop	 esi
  0002a	5b		 pop	 ebx
  0002b	81 c4 cc 00 00
	00		 add	 esp, 204		; 000000ccH
  00031	3b ec		 cmp	 ebp, esp
  00033	e8 00 00 00 00	 call	 __RTC_CheckEsp
  00038	8b e5		 mov	 esp, ebp
  0003a	5d		 pop	 ebp
  0003b	c3		 ret	 0
??1?$_Compressed_pair@V?$allocator@D@std@@V?$_String_val@U?$_Simple_types@D@std@@@2@$00@std@@QAE@XZ ENDP ; std::_Compressed_pair<std::allocator<char>,std::_String_val<std::_Simple_types<char> >,1>::~_Compressed_pair<std::allocator<char>,std::_String_val<std::_Simple_types<char> >,1>
_TEXT	ENDS
; Function compile flags: /Odtp /RTCsu /ZI
; File D:\Soft\Microsoft Visual Studio\VC\Tools\MSVC\14.33.31629\include\xmemory
;	COMDAT ?_Get_first@?$_Compressed_pair@V?$allocator@D@std@@V?$_String_val@U?$_Simple_types@D@std@@@2@$00@std@@QAEAAV?$allocator@D@2@XZ
_TEXT	SEGMENT
_this$ = -8						; size = 4
?_Get_first@?$_Compressed_pair@V?$allocator@D@std@@V?$_String_val@U?$_Simple_types@D@std@@@2@$00@std@@QAEAAV?$allocator@D@2@XZ PROC ; std::_Compressed_pair<std::allocator<char>,std::_String_val<std::_Simple_types<char> >,1>::_Get_first, COMDAT
; _this$ = ecx

; 1382 :     constexpr _Ty1& _Get_first() noexcept {

  00000	55		 push	 ebp
  00001	8b ec		 mov	 ebp, esp
  00003	81 ec cc 00 00
	00		 sub	 esp, 204		; 000000ccH
  00009	53		 push	 ebx
  0000a	56		 push	 esi
  0000b	57		 push	 edi
  0000c	51		 push	 ecx
  0000d	8d 7d f4	 lea	 edi, DWORD PTR [ebp-12]
  00010	b9 03 00 00 00	 mov	 ecx, 3
  00015	b8 cc cc cc cc	 mov	 eax, -858993460		; ccccccccH
  0001a	f3 ab		 rep stosd
  0001c	59		 pop	 ecx
  0001d	89 4d f8	 mov	 DWORD PTR _this$[ebp], ecx
  00020	b9 00 00 00 00	 mov	 ecx, OFFSET __4741D85A_xmemory
  00025	e8 00 00 00 00	 call	 @__CheckForDebuggerJustMyCode@4

; 1383 :         return *this;

  0002a	8b 45 f8	 mov	 eax, DWORD PTR _this$[ebp]

; 1384 :     }

  0002d	5f		 pop	 edi
  0002e	5e		 pop	 esi
  0002f	5b		 pop	 ebx
  00030	81 c4 cc 00 00
	00		 add	 esp, 204		; 000000ccH
  00036	3b ec		 cmp	 ebp, esp
  00038	e8 00 00 00 00	 call	 __RTC_CheckEsp
  0003d	8b e5		 mov	 esp, ebp
  0003f	5d		 pop	 ebp
  00040	c3		 ret	 0
?_Get_first@?$_Compressed_pair@V?$allocator@D@std@@V?$_String_val@U?$_Simple_types@D@std@@@2@$00@std@@QAEAAV?$allocator@D@2@XZ ENDP ; std::_Compressed_pair<std::allocator<char>,std::_String_val<std::_Simple_types<char> >,1>::_Get_first
_TEXT	ENDS
; Function compile flags: /Odtp /RTCsu /ZI
; File D:\Soft\Microsoft Visual Studio\VC\Tools\MSVC\14.33.31629\include\xstring
;	COMDAT ?_Getal@?$basic_string@DU?$char_traits@D@std@@V?$allocator@D@2@@std@@AAEAAV?$allocator@D@2@XZ
_TEXT	SEGMENT
_this$ = -8						; size = 4
?_Getal@?$basic_string@DU?$char_traits@D@std@@V?$allocator@D@2@@std@@AAEAAV?$allocator@D@2@XZ PROC ; std::basic_string<char,std::char_traits<char>,std::allocator<char> >::_Getal, COMDAT
; _this$ = ecx

; 4931 :     _CONSTEXPR20 _Alty& _Getal() noexcept {

  00000	55		 push	 ebp
  00001	8b ec		 mov	 ebp, esp
  00003	81 ec cc 00 00
	00		 sub	 esp, 204		; 000000ccH
  00009	53		 push	 ebx
  0000a	56		 push	 esi
  0000b	57		 push	 edi
  0000c	51		 push	 ecx
  0000d	8d 7d f4	 lea	 edi, DWORD PTR [ebp-12]
  00010	b9 03 00 00 00	 mov	 ecx, 3
  00015	b8 cc cc cc cc	 mov	 eax, -858993460		; ccccccccH
  0001a	f3 ab		 rep stosd
  0001c	59		 pop	 ecx
  0001d	89 4d f8	 mov	 DWORD PTR _this$[ebp], ecx
  00020	b9 00 00 00 00	 mov	 ecx, OFFSET __33925EC6_xstring
  00025	e8 00 00 00 00	 call	 @__CheckForDebuggerJustMyCode@4

; 4932 :         return _Mypair._Get_first();

  0002a	8b 4d f8	 mov	 ecx, DWORD PTR _this$[ebp]
  0002d	e8 00 00 00 00	 call	 ?_Get_first@?$_Compressed_pair@V?$allocator@D@std@@V?$_String_val@U?$_Simple_types@D@std@@@2@$00@std@@QAEAAV?$allocator@D@2@XZ ; std::_Compressed_pair<std::allocator<char>,std::_String_val<std::_Simple_types<char> >,1>::_Get_first

; 4933 :     }

  00032	5f		 pop	 edi
  00033	5e		 pop	 esi
  00034	5b		 pop	 ebx
  00035	81 c4 cc 00 00
	00		 add	 esp, 204		; 000000ccH
  0003b	3b ec		 cmp	 ebp, esp
  0003d	e8 00 00 00 00	 call	 __RTC_CheckEsp
  00042	8b e5		 mov	 esp, ebp
  00044	5d		 pop	 ebp
  00045	c3		 ret	 0
?_Getal@?$basic_string@DU?$char_traits@D@std@@V?$allocator@D@2@@std@@AAEAAV?$allocator@D@2@XZ ENDP ; std::basic_string<char,std::char_traits<char>,std::allocator<char> >::_Getal
_TEXT	ENDS
; Function compile flags: /Odtp /RTCsu /ZI
; File D:\Soft\Microsoft Visual Studio\VC\Tools\MSVC\14.33.31629\include\xstring
;	COMDAT ?_Tidy_deallocate@?$basic_string@DU?$char_traits@D@std@@V?$allocator@D@2@@std@@AAEXXZ
_TEXT	SEGMENT
$T2 = -257						; size = 1
__Al$3 = -56						; size = 4
__Ptr$4 = -44						; size = 4
__My_data$ = -32					; size = 4
_this$ = -20						; size = 4
__$EHRec$ = -12						; size = 12
?_Tidy_deallocate@?$basic_string@DU?$char_traits@D@std@@V?$allocator@D@2@@std@@AAEXXZ PROC ; std::basic_string<char,std::char_traits<char>,std::allocator<char> >::_Tidy_deallocate, COMDAT
; _this$ = ecx

; 4892 :     _CONSTEXPR20 void _Tidy_deallocate() noexcept { // initialize buffer, deallocating any storage

  00000	55		 push	 ebp
  00001	8b ec		 mov	 ebp, esp
  00003	6a ff		 push	 -1
  00005	68 00 00 00 00	 push	 __ehhandler$?_Tidy_deallocate@?$basic_string@DU?$char_traits@D@std@@V?$allocator@D@2@@std@@AAEXXZ
  0000a	64 a1 00 00 00
	00		 mov	 eax, DWORD PTR fs:0
  00010	50		 push	 eax
  00011	81 ec fc 00 00
	00		 sub	 esp, 252		; 000000fcH
  00017	53		 push	 ebx
  00018	56		 push	 esi
  00019	57		 push	 edi
  0001a	51		 push	 ecx
  0001b	8d 7d b8	 lea	 edi, DWORD PTR [ebp-72]
  0001e	b9 0f 00 00 00	 mov	 ecx, 15			; 0000000fH
  00023	b8 cc cc cc cc	 mov	 eax, -858993460		; ccccccccH
  00028	f3 ab		 rep stosd
  0002a	59		 pop	 ecx
  0002b	a1 00 00 00 00	 mov	 eax, DWORD PTR ___security_cookie
  00030	33 c5		 xor	 eax, ebp
  00032	50		 push	 eax
  00033	8d 45 f4	 lea	 eax, DWORD PTR __$EHRec$[ebp]
  00036	64 a3 00 00 00
	00		 mov	 DWORD PTR fs:0, eax
  0003c	89 4d ec	 mov	 DWORD PTR _this$[ebp], ecx
  0003f	b9 00 00 00 00	 mov	 ecx, OFFSET __33925EC6_xstring
  00044	e8 00 00 00 00	 call	 @__CheckForDebuggerJustMyCode@4

; 4893 :         auto& _My_data = _Mypair._Myval2;

  00049	8b 45 ec	 mov	 eax, DWORD PTR _this$[ebp]
  0004c	89 45 e0	 mov	 DWORD PTR __My_data$[ebp], eax

; 4894 :         _My_data._Orphan_all();

  0004f	8b 4d e0	 mov	 ecx, DWORD PTR __My_data$[ebp]
  00052	e8 00 00 00 00	 call	 ?_Orphan_all@_Container_base12@std@@QAEXXZ ; std::_Container_base12::_Orphan_all

; 4895 :         _ASAN_STRING_REMOVE(*this);
; 4896 :         if (_My_data._Large_string_engaged()) {

  00057	8b 4d e0	 mov	 ecx, DWORD PTR __My_data$[ebp]
  0005a	e8 00 00 00 00	 call	 ?_Large_string_engaged@?$_String_val@U?$_Simple_types@D@std@@@std@@QBE_NXZ ; std::_String_val<std::_Simple_types<char> >::_Large_string_engaged
  0005f	0f b6 c0	 movzx	 eax, al
  00062	85 c0		 test	 eax, eax
  00064	74 39		 je	 SHORT $LN2@Tidy_deall

; 4897 :             const pointer _Ptr = _My_data._Bx._Ptr;

  00066	8b 45 e0	 mov	 eax, DWORD PTR __My_data$[ebp]
  00069	8b 48 04	 mov	 ecx, DWORD PTR [eax+4]
  0006c	89 4d d4	 mov	 DWORD PTR __Ptr$4[ebp], ecx

; 4898 :             auto& _Al          = _Getal();

  0006f	8b 4d ec	 mov	 ecx, DWORD PTR _this$[ebp]
  00072	e8 00 00 00 00	 call	 ?_Getal@?$basic_string@DU?$char_traits@D@std@@V?$allocator@D@2@@std@@AAEAAV?$allocator@D@2@XZ ; std::basic_string<char,std::char_traits<char>,std::allocator<char> >::_Getal
  00077	89 45 c8	 mov	 DWORD PTR __Al$3[ebp], eax

; 4899 :             _Destroy_in_place(_My_data._Bx._Ptr);

  0007a	8b 45 e0	 mov	 eax, DWORD PTR __My_data$[ebp]
  0007d	83 c0 04	 add	 eax, 4
  00080	50		 push	 eax
  00081	e8 00 00 00 00	 call	 ??$_Destroy_in_place@PAD@std@@YAXAAPAD@Z ; std::_Destroy_in_place<char *>
  00086	83 c4 04	 add	 esp, 4

; 4900 : #if _HAS_CXX20
; 4901 :             if (_STD is_constant_evaluated()) { // begin the lifetime of the array elements before copying into them
; 4902 :                 _Construct_in_place(_My_data._Bx);
; 4903 :             }
; 4904 : #endif // _HAS_CXX20
; 4905 :             _Al.deallocate(_Ptr, _My_data._Myres + 1);

  00089	8b 45 e0	 mov	 eax, DWORD PTR __My_data$[ebp]
  0008c	8b 48 18	 mov	 ecx, DWORD PTR [eax+24]
  0008f	83 c1 01	 add	 ecx, 1
  00092	51		 push	 ecx
  00093	8b 55 d4	 mov	 edx, DWORD PTR __Ptr$4[ebp]
  00096	52		 push	 edx
  00097	8b 4d c8	 mov	 ecx, DWORD PTR __Al$3[ebp]
  0009a	e8 00 00 00 00	 call	 ?deallocate@?$allocator@D@std@@QAEXQADI@Z ; std::allocator<char>::deallocate
$LN2@Tidy_deall:

; 4906 :         }
; 4907 : 
; 4908 :         _My_data._Mysize = 0;

  0009f	8b 45 e0	 mov	 eax, DWORD PTR __My_data$[ebp]
  000a2	c7 40 14 00 00
	00 00		 mov	 DWORD PTR [eax+20], 0

; 4909 : #if _HAS_CXX20
; 4910 :         if (_STD is_constant_evaluated()) {
; 4911 :             _My_data._Myres = 0;
; 4912 :         } else
; 4913 : #endif // _HAS_CXX20
; 4914 :         {
; 4915 :             _My_data._Myres = _BUF_SIZE - 1;

  000a9	8b 45 e0	 mov	 eax, DWORD PTR __My_data$[ebp]
  000ac	c7 40 18 0f 00
	00 00		 mov	 DWORD PTR [eax+24], 15	; 0000000fH

; 4916 :             // the _Traits::assign is last so the codegen doesn't think the char write can alias this
; 4917 :             _Traits::assign(_My_data._Bx._Buf[0], _Elem());

  000b3	c6 85 ff fe ff
	ff 00		 mov	 BYTE PTR $T2[ebp], 0
  000ba	8d 85 ff fe ff
	ff		 lea	 eax, DWORD PTR $T2[ebp]
  000c0	50		 push	 eax
  000c1	b9 01 00 00 00	 mov	 ecx, 1
  000c6	6b d1 00	 imul	 edx, ecx, 0
  000c9	8b 45 e0	 mov	 eax, DWORD PTR __My_data$[ebp]
  000cc	8d 4c 10 04	 lea	 ecx, DWORD PTR [eax+edx+4]
  000d0	51		 push	 ecx
  000d1	e8 00 00 00 00	 call	 ?assign@?$_Narrow_char_traits@DH@std@@SAXAADABD@Z ; std::_Narrow_char_traits<char,int>::assign
  000d6	83 c4 08	 add	 esp, 8

; 4918 :         }
; 4919 :     }

  000d9	8b 4d f4	 mov	 ecx, DWORD PTR __$EHRec$[ebp]
  000dc	64 89 0d 00 00
	00 00		 mov	 DWORD PTR fs:0, ecx
  000e3	59		 pop	 ecx
  000e4	5f		 pop	 edi
  000e5	5e		 pop	 esi
  000e6	5b		 pop	 ebx
  000e7	81 c4 08 01 00
	00		 add	 esp, 264		; 00000108H
  000ed	3b ec		 cmp	 ebp, esp
  000ef	e8 00 00 00 00	 call	 __RTC_CheckEsp
  000f4	8b e5		 mov	 esp, ebp
  000f6	5d		 pop	 ebp
  000f7	c3		 ret	 0
  000f8	cc		 int	 3
  000f9	cc		 int	 3
  000fa	cc		 int	 3
  000fb	cc		 int	 3
  000fc	cc		 int	 3
_TEXT	ENDS
;	COMDAT text$x
text$x	SEGMENT
__ehhandler$?_Tidy_deallocate@?$basic_string@DU?$char_traits@D@std@@V?$allocator@D@2@@std@@AAEXXZ:
  00000	90		 npad	 1
  00001	90		 npad	 1
  00002	8b 54 24 08	 mov	 edx, DWORD PTR [esp+8]
  00006	8d 42 0c	 lea	 eax, DWORD PTR [edx+12]
  00009	8b 8a f4 fe ff
	ff		 mov	 ecx, DWORD PTR [edx-268]
  0000f	33 c8		 xor	 ecx, eax
  00011	e8 00 00 00 00	 call	 @__security_check_cookie@4
  00016	b8 00 00 00 00	 mov	 eax, OFFSET __ehfuncinfo$?_Tidy_deallocate@?$basic_string@DU?$char_traits@D@std@@V?$allocator@D@2@@std@@AAEXXZ
  0001b	e9 00 00 00 00	 jmp	 ___CxxFrameHandler3
text$x	ENDS
?_Tidy_deallocate@?$basic_string@DU?$char_traits@D@std@@V?$allocator@D@2@@std@@AAEXXZ ENDP ; std::basic_string<char,std::char_traits<char>,std::allocator<char> >::_Tidy_deallocate
; Function compile flags: /Odtp /RTCsu /ZI
; File D:\Soft\Microsoft Visual Studio\VC\Tools\MSVC\14.33.31629\include\xstring
;	COMDAT ?size@?$basic_string@DU?$char_traits@D@std@@V?$allocator@D@2@@std@@QBEIXZ
_TEXT	SEGMENT
_this$ = -8						; size = 4
?size@?$basic_string@DU?$char_traits@D@std@@V?$allocator@D@2@@std@@QBEIXZ PROC ; std::basic_string<char,std::char_traits<char>,std::allocator<char> >::size, COMDAT
; _this$ = ecx

; 4153 :     _NODISCARD _CONSTEXPR20 size_type size() const noexcept {

  00000	55		 push	 ebp
  00001	8b ec		 mov	 ebp, esp
  00003	81 ec cc 00 00
	00		 sub	 esp, 204		; 000000ccH
  00009	53		 push	 ebx
  0000a	56		 push	 esi
  0000b	57		 push	 edi
  0000c	51		 push	 ecx
  0000d	8d 7d f4	 lea	 edi, DWORD PTR [ebp-12]
  00010	b9 03 00 00 00	 mov	 ecx, 3
  00015	b8 cc cc cc cc	 mov	 eax, -858993460		; ccccccccH
  0001a	f3 ab		 rep stosd
  0001c	59		 pop	 ecx
  0001d	89 4d f8	 mov	 DWORD PTR _this$[ebp], ecx
  00020	b9 00 00 00 00	 mov	 ecx, OFFSET __33925EC6_xstring
  00025	e8 00 00 00 00	 call	 @__CheckForDebuggerJustMyCode@4

; 4154 :         return _Mypair._Myval2._Mysize;

  0002a	8b 45 f8	 mov	 eax, DWORD PTR _this$[ebp]
  0002d	8b 40 14	 mov	 eax, DWORD PTR [eax+20]

; 4155 :     }

  00030	5f		 pop	 edi
  00031	5e		 pop	 esi
  00032	5b		 pop	 ebx
  00033	81 c4 cc 00 00
	00		 add	 esp, 204		; 000000ccH
  00039	3b ec		 cmp	 ebp, esp
  0003b	e8 00 00 00 00	 call	 __RTC_CheckEsp
  00040	8b e5		 mov	 esp, ebp
  00042	5d		 pop	 ebp
  00043	c3		 ret	 0
?size@?$basic_string@DU?$char_traits@D@std@@V?$allocator@D@2@@std@@QBEIXZ ENDP ; std::basic_string<char,std::char_traits<char>,std::allocator<char> >::size
_TEXT	ENDS
; Function compile flags: /Odtp /RTCsu /ZI
; File D:\Soft\Microsoft Visual Studio\VC\Tools\MSVC\14.33.31629\include\xstring
;	COMDAT ??A?$basic_string@DU?$char_traits@D@std@@V?$allocator@D@2@@std@@QAEAADI@Z
_TEXT	SEGMENT
_this$ = -8						; size = 4
__Off$ = 8						; size = 4
??A?$basic_string@DU?$char_traits@D@std@@V?$allocator@D@2@@std@@QAEAADI@Z PROC ; std::basic_string<char,std::char_traits<char>,std::allocator<char> >::operator[], COMDAT
; _this$ = ecx

; 4052 :     _NODISCARD _CONSTEXPR20 reference operator[](const size_type _Off) noexcept /* strengthened */ {

  00000	55		 push	 ebp
  00001	8b ec		 mov	 ebp, esp
  00003	81 ec cc 00 00
	00		 sub	 esp, 204		; 000000ccH
  00009	53		 push	 ebx
  0000a	56		 push	 esi
  0000b	57		 push	 edi
  0000c	51		 push	 ecx
  0000d	8d 7d f4	 lea	 edi, DWORD PTR [ebp-12]
  00010	b9 03 00 00 00	 mov	 ecx, 3
  00015	b8 cc cc cc cc	 mov	 eax, -858993460		; ccccccccH
  0001a	f3 ab		 rep stosd
  0001c	59		 pop	 ecx
  0001d	89 4d f8	 mov	 DWORD PTR _this$[ebp], ecx
  00020	b9 00 00 00 00	 mov	 ecx, OFFSET __33925EC6_xstring
  00025	e8 00 00 00 00	 call	 @__CheckForDebuggerJustMyCode@4
$LN4@operator:

; 4053 : #if _CONTAINER_DEBUG_LEVEL > 0
; 4054 :         _STL_VERIFY(_Off <= _Mypair._Myval2._Mysize, "string subscript out of range");

  0002a	8b 45 f8	 mov	 eax, DWORD PTR _this$[ebp]
  0002d	8b 4d 08	 mov	 ecx, DWORD PTR __Off$[ebp]
  00030	3b 48 14	 cmp	 ecx, DWORD PTR [eax+20]
  00033	77 02		 ja	 SHORT $LN7@operator
  00035	eb 5c		 jmp	 SHORT $LN2@operator
$LN7@operator:
  00037	8b f4		 mov	 esi, esp
  00039	68 00 00 00 00	 push	 OFFSET ??_C@_0BO@LFGPDMIB@string?5subscript?5out?5of?5range@
  0003e	68 00 00 00 00	 push	 OFFSET ??_C@_02DKCKIIND@?$CFs@
  00043	6a 00		 push	 0
  00045	68 d6 0f 00 00	 push	 4054			; 00000fd6H
  0004a	68 00 00 00 00	 push	 OFFSET ??_C@_0EK@BICMECML@D?3?2Soft?2Microsoft?5Visual?5Studio@
  0004f	6a 02		 push	 2
  00051	ff 15 00 00 00
	00		 call	 DWORD PTR __imp___CrtDbgReport
  00057	83 c4 18	 add	 esp, 24			; 00000018H
  0005a	3b f4		 cmp	 esi, esp
  0005c	e8 00 00 00 00	 call	 __RTC_CheckEsp
  00061	83 f8 01	 cmp	 eax, 1
  00064	75 01		 jne	 SHORT $LN11@operator
  00066	cc		 int	 3
$LN11@operator:
  00067	8b f4		 mov	 esi, esp
  00069	6a 00		 push	 0
  0006b	68 d6 0f 00 00	 push	 4054			; 00000fd6H
  00070	68 00 00 00 00	 push	 OFFSET ??_C@_1JE@ICHBDFBL@?$AAD?$AA?3?$AA?2?$AAS?$AAo?$AAf?$AAt?$AA?2?$AAM?$AAi?$AAc?$AAr?$AAo?$AAs?$AAo@
  00075	68 00 00 00 00	 push	 OFFSET ??_C@_11LOCGONAA@@
  0007a	68 00 00 00 00	 push	 OFFSET ??_C@_1EA@OADAPGGK@?$AA?$CC?$AAs?$AAt?$AAr?$AAi?$AAn?$AAg?$AA?5?$AAs?$AAu?$AAb?$AAs?$AAc?$AAr?$AAi@
  0007f	ff 15 00 00 00
	00		 call	 DWORD PTR __imp___invalid_parameter
  00085	83 c4 14	 add	 esp, 20			; 00000014H
  00088	3b f4		 cmp	 esi, esp
  0008a	e8 00 00 00 00	 call	 __RTC_CheckEsp
  0008f	33 c0		 xor	 eax, eax
  00091	75 a4		 jne	 SHORT $LN7@operator
$LN2@operator:
  00093	33 c0		 xor	 eax, eax
  00095	75 93		 jne	 SHORT $LN4@operator

; 4055 : #endif // _CONTAINER_DEBUG_LEVEL > 0
; 4056 :         return _Mypair._Myval2._Myptr()[_Off];

  00097	8b 4d f8	 mov	 ecx, DWORD PTR _this$[ebp]
  0009a	e8 00 00 00 00	 call	 ?_Myptr@?$_String_val@U?$_Simple_types@D@std@@@std@@QAEPADXZ ; std::_String_val<std::_Simple_types<char> >::_Myptr
  0009f	03 45 08	 add	 eax, DWORD PTR __Off$[ebp]

; 4057 :     }

  000a2	5f		 pop	 edi
  000a3	5e		 pop	 esi
  000a4	5b		 pop	 ebx
  000a5	81 c4 cc 00 00
	00		 add	 esp, 204		; 000000ccH
  000ab	3b ec		 cmp	 ebp, esp
  000ad	e8 00 00 00 00	 call	 __RTC_CheckEsp
  000b2	8b e5		 mov	 esp, ebp
  000b4	5d		 pop	 ebp
  000b5	c2 04 00	 ret	 4
??A?$basic_string@DU?$char_traits@D@std@@V?$allocator@D@2@@std@@QAEAADI@Z ENDP ; std::basic_string<char,std::char_traits<char>,std::allocator<char> >::operator[]
_TEXT	ENDS
; Function compile flags: /Odtp /RTCsu /ZI
; File D:\Soft\Microsoft Visual Studio\VC\Tools\MSVC\14.33.31629\include\xstring
;	COMDAT ??1?$basic_string@DU?$char_traits@D@std@@V?$allocator@D@2@@std@@QAE@XZ
_TEXT	SEGMENT
__To_delete$ = -48					; size = 4
_$S4$ = -33						; size = 1
__Alproxy$ = -24					; size = 4
_this$ = -12						; size = 4
__$ArrayPad$ = -4					; size = 4
??1?$basic_string@DU?$char_traits@D@std@@V?$allocator@D@2@@std@@QAE@XZ PROC ; std::basic_string<char,std::char_traits<char>,std::allocator<char> >::~basic_string<char,std::char_traits<char>,std::allocator<char> >, COMDAT
; _this$ = ecx

; 3206 :     _CONSTEXPR20 ~basic_string() noexcept {

  00000	55		 push	 ebp
  00001	8b ec		 mov	 ebp, esp
  00003	81 ec f4 00 00
	00		 sub	 esp, 244		; 000000f4H
  00009	53		 push	 ebx
  0000a	56		 push	 esi
  0000b	57		 push	 edi
  0000c	51		 push	 ecx
  0000d	8d 7d cc	 lea	 edi, DWORD PTR [ebp-52]
  00010	b9 0d 00 00 00	 mov	 ecx, 13			; 0000000dH
  00015	b8 cc cc cc cc	 mov	 eax, -858993460		; ccccccccH
  0001a	f3 ab		 rep stosd
  0001c	59		 pop	 ecx
  0001d	a1 00 00 00 00	 mov	 eax, DWORD PTR ___security_cookie
  00022	33 c5		 xor	 eax, ebp
  00024	89 45 fc	 mov	 DWORD PTR __$ArrayPad$[ebp], eax
  00027	89 4d f4	 mov	 DWORD PTR _this$[ebp], ecx
  0002a	b9 00 00 00 00	 mov	 ecx, OFFSET __33925EC6_xstring
  0002f	e8 00 00 00 00	 call	 @__CheckForDebuggerJustMyCode@4

; 3207 :         _Tidy_deallocate();

  00034	8b 4d f4	 mov	 ecx, DWORD PTR _this$[ebp]
  00037	e8 00 00 00 00	 call	 ?_Tidy_deallocate@?$basic_string@DU?$char_traits@D@std@@V?$allocator@D@2@@std@@AAEXXZ ; std::basic_string<char,std::char_traits<char>,std::allocator<char> >::_Tidy_deallocate

; 3208 : #if _ITERATOR_DEBUG_LEVEL != 0
; 3209 :         auto&& _Alproxy          = _GET_PROXY_ALLOCATOR(_Alty, _Getal());

  0003c	8b 4d f4	 mov	 ecx, DWORD PTR _this$[ebp]
  0003f	e8 00 00 00 00	 call	 ?_Getal@?$basic_string@DU?$char_traits@D@std@@V?$allocator@D@2@@std@@AAEAAV?$allocator@D@2@XZ ; std::basic_string<char,std::char_traits<char>,std::allocator<char> >::_Getal
  00044	50		 push	 eax
  00045	8d 4d df	 lea	 ecx, DWORD PTR _$S4$[ebp]
  00048	e8 00 00 00 00	 call	 ??$?0D@?$allocator@U_Container_proxy@std@@@std@@QAE@ABV?$allocator@D@1@@Z ; std::allocator<std::_Container_proxy>::allocator<std::_Container_proxy><char>
  0004d	8d 45 df	 lea	 eax, DWORD PTR _$S4$[ebp]
  00050	89 45 e8	 mov	 DWORD PTR __Alproxy$[ebp], eax

; 3210 :         const auto _To_delete    = _Mypair._Myval2._Myproxy;

  00053	8b 45 f4	 mov	 eax, DWORD PTR _this$[ebp]
  00056	8b 08		 mov	 ecx, DWORD PTR [eax]
  00058	89 4d d0	 mov	 DWORD PTR __To_delete$[ebp], ecx

; 3211 :         _Mypair._Myval2._Myproxy = nullptr;

  0005b	8b 45 f4	 mov	 eax, DWORD PTR _this$[ebp]
  0005e	c7 00 00 00 00
	00		 mov	 DWORD PTR [eax], 0

; 3212 :         _Delete_plain_internal(_Alproxy, _To_delete);

  00064	8b 45 d0	 mov	 eax, DWORD PTR __To_delete$[ebp]
  00067	50		 push	 eax
  00068	8b 4d e8	 mov	 ecx, DWORD PTR __Alproxy$[ebp]
  0006b	51		 push	 ecx
  0006c	e8 00 00 00 00	 call	 ??$_Delete_plain_internal@V?$allocator@U_Container_proxy@std@@@std@@@std@@YAXAAV?$allocator@U_Container_proxy@std@@@0@QAU_Container_proxy@0@@Z ; std::_Delete_plain_internal<std::allocator<std::_Container_proxy> >
  00071	83 c4 08	 add	 esp, 8

; 3213 : #endif // _ITERATOR_DEBUG_LEVEL != 0
; 3214 :     }

  00074	8b 4d f4	 mov	 ecx, DWORD PTR _this$[ebp]
  00077	e8 00 00 00 00	 call	 ??1?$_Compressed_pair@V?$allocator@D@std@@V?$_String_val@U?$_Simple_types@D@std@@@2@$00@std@@QAE@XZ
  0007c	52		 push	 edx
  0007d	8b cd		 mov	 ecx, ebp
  0007f	50		 push	 eax
  00080	8d 15 00 00 00
	00		 lea	 edx, DWORD PTR $LN5@basic_stri
  00086	e8 00 00 00 00	 call	 @_RTC_CheckStackVars@8
  0008b	58		 pop	 eax
  0008c	5a		 pop	 edx
  0008d	5f		 pop	 edi
  0008e	5e		 pop	 esi
  0008f	5b		 pop	 ebx
  00090	8b 4d fc	 mov	 ecx, DWORD PTR __$ArrayPad$[ebp]
  00093	33 cd		 xor	 ecx, ebp
  00095	e8 00 00 00 00	 call	 @__security_check_cookie@4
  0009a	81 c4 f4 00 00
	00		 add	 esp, 244		; 000000f4H
  000a0	3b ec		 cmp	 ebp, esp
  000a2	e8 00 00 00 00	 call	 __RTC_CheckEsp
  000a7	8b e5		 mov	 esp, ebp
  000a9	5d		 pop	 ebp
  000aa	c3		 ret	 0
  000ab	90		 npad	 1
$LN5@basic_stri:
  000ac	01 00 00 00	 DD	 1
  000b0	00 00 00 00	 DD	 $LN4@basic_stri
$LN4@basic_stri:
  000b4	df ff ff ff	 DD	 -33			; ffffffdfH
  000b8	01 00 00 00	 DD	 1
  000bc	00 00 00 00	 DD	 $LN3@basic_stri
$LN3@basic_stri:
  000c0	24		 DB	 36			; 00000024H
  000c1	53		 DB	 83			; 00000053H
  000c2	34		 DB	 52			; 00000034H
  000c3	00		 DB	 0
??1?$basic_string@DU?$char_traits@D@std@@V?$allocator@D@2@@std@@QAE@XZ ENDP ; std::basic_string<char,std::char_traits<char>,std::allocator<char> >::~basic_string<char,std::char_traits<char>,std::allocator<char> >
_TEXT	ENDS
; Function compile flags: /Odtp /RTCsu /ZI
;	COMDAT ??1?$_String_val@U?$_Simple_types@D@std@@@std@@QAE@XZ
_TEXT	SEGMENT
_this$ = -8						; size = 4
??1?$_String_val@U?$_Simple_types@D@std@@@std@@QAE@XZ PROC ; std::_String_val<std::_Simple_types<char> >::~_String_val<std::_Simple_types<char> >, COMDAT
; _this$ = ecx
  00000	55		 push	 ebp
  00001	8b ec		 mov	 ebp, esp
  00003	81 ec cc 00 00
	00		 sub	 esp, 204		; 000000ccH
  00009	53		 push	 ebx
  0000a	56		 push	 esi
  0000b	57		 push	 edi
  0000c	51		 push	 ecx
  0000d	8d 7d f4	 lea	 edi, DWORD PTR [ebp-12]
  00010	b9 03 00 00 00	 mov	 ecx, 3
  00015	b8 cc cc cc cc	 mov	 eax, -858993460		; ccccccccH
  0001a	f3 ab		 rep stosd
  0001c	59		 pop	 ecx
  0001d	89 4d f8	 mov	 DWORD PTR _this$[ebp], ecx
  00020	8b 4d f8	 mov	 ecx, DWORD PTR _this$[ebp]
  00023	83 c1 04	 add	 ecx, 4
  00026	e8 00 00 00 00	 call	 ??1_Bxty@?$_String_val@U?$_Simple_types@D@std@@@std@@QAE@XZ ; std::_String_val<std::_Simple_types<char> >::_Bxty::~_Bxty
  0002b	5f		 pop	 edi
  0002c	5e		 pop	 esi
  0002d	5b		 pop	 ebx
  0002e	81 c4 cc 00 00
	00		 add	 esp, 204		; 000000ccH
  00034	3b ec		 cmp	 ebp, esp
  00036	e8 00 00 00 00	 call	 __RTC_CheckEsp
  0003b	8b e5		 mov	 esp, ebp
  0003d	5d		 pop	 ebp
  0003e	c3		 ret	 0
??1?$_String_val@U?$_Simple_types@D@std@@@std@@QAE@XZ ENDP ; std::_String_val<std::_Simple_types<char> >::~_String_val<std::_Simple_types<char> >
_TEXT	ENDS
; Function compile flags: /Odtp /RTCsu /ZI
; File D:\Soft\Microsoft Visual Studio\VC\Tools\MSVC\14.33.31629\include\xstring
;	COMDAT ??1_Bxty@?$_String_val@U?$_Simple_types@D@std@@@std@@QAE@XZ
_TEXT	SEGMENT
_this$ = -8						; size = 4
??1_Bxty@?$_String_val@U?$_Simple_types@D@std@@@std@@QAE@XZ PROC ; std::_String_val<std::_Simple_types<char> >::_Bxty::~_Bxty, COMDAT
; _this$ = ecx

; 2313 :         _CONSTEXPR20 ~_Bxty() noexcept {} // user-provided, for fancy pointers

  00000	55		 push	 ebp
  00001	8b ec		 mov	 ebp, esp
  00003	81 ec cc 00 00
	00		 sub	 esp, 204		; 000000ccH
  00009	53		 push	 ebx
  0000a	56		 push	 esi
  0000b	57		 push	 edi
  0000c	51		 push	 ecx
  0000d	8d 7d f4	 lea	 edi, DWORD PTR [ebp-12]
  00010	b9 03 00 00 00	 mov	 ecx, 3
  00015	b8 cc cc cc cc	 mov	 eax, -858993460		; ccccccccH
  0001a	f3 ab		 rep stosd
  0001c	59		 pop	 ecx
  0001d	89 4d f8	 mov	 DWORD PTR _this$[ebp], ecx
  00020	b9 00 00 00 00	 mov	 ecx, OFFSET __33925EC6_xstring
  00025	e8 00 00 00 00	 call	 @__CheckForDebuggerJustMyCode@4
  0002a	5f		 pop	 edi
  0002b	5e		 pop	 esi
  0002c	5b		 pop	 ebx
  0002d	81 c4 cc 00 00
	00		 add	 esp, 204		; 000000ccH
  00033	3b ec		 cmp	 ebp, esp
  00035	e8 00 00 00 00	 call	 __RTC_CheckEsp
  0003a	8b e5		 mov	 esp, ebp
  0003c	5d		 pop	 ebp
  0003d	c3		 ret	 0
??1_Bxty@?$_String_val@U?$_Simple_types@D@std@@@std@@QAE@XZ ENDP ; std::_String_val<std::_Simple_types<char> >::_Bxty::~_Bxty
_TEXT	ENDS
; Function compile flags: /Odtp /RTCsu /ZI
; File D:\Soft\Microsoft Visual Studio\VC\Tools\MSVC\14.33.31629\include\xstring
;	COMDAT ?_Large_string_engaged@?$_String_val@U?$_Simple_types@D@std@@@std@@QBE_NXZ
_TEXT	SEGMENT
tv66 = -208						; size = 4
_this$ = -8						; size = 4
?_Large_string_engaged@?$_String_val@U?$_Simple_types@D@std@@@std@@QBE_NXZ PROC ; std::_String_val<std::_Simple_types<char> >::_Large_string_engaged, COMDAT
; _this$ = ecx

; 2278 :     _CONSTEXPR20 bool _Large_string_engaged() const noexcept {

  00000	55		 push	 ebp
  00001	8b ec		 mov	 ebp, esp
  00003	81 ec d0 00 00
	00		 sub	 esp, 208		; 000000d0H
  00009	53		 push	 ebx
  0000a	56		 push	 esi
  0000b	57		 push	 edi
  0000c	51		 push	 ecx
  0000d	8d 7d f0	 lea	 edi, DWORD PTR [ebp-16]
  00010	b9 04 00 00 00	 mov	 ecx, 4
  00015	b8 cc cc cc cc	 mov	 eax, -858993460		; ccccccccH
  0001a	f3 ab		 rep stosd
  0001c	59		 pop	 ecx
  0001d	89 4d f8	 mov	 DWORD PTR _this$[ebp], ecx
  00020	b9 00 00 00 00	 mov	 ecx, OFFSET __33925EC6_xstring
  00025	e8 00 00 00 00	 call	 @__CheckForDebuggerJustMyCode@4

; 2279 : #if _HAS_CXX20
; 2280 :         if (_STD is_constant_evaluated()) {
; 2281 :             return true;
; 2282 :         }
; 2283 : #endif // _HAS_CXX20
; 2284 :         return _BUF_SIZE <= _Myres;

  0002a	8b 45 f8	 mov	 eax, DWORD PTR _this$[ebp]
  0002d	83 78 18 10	 cmp	 DWORD PTR [eax+24], 16	; 00000010H
  00031	72 0c		 jb	 SHORT $LN3@Large_stri
  00033	c7 85 30 ff ff
	ff 01 00 00 00	 mov	 DWORD PTR tv66[ebp], 1
  0003d	eb 0a		 jmp	 SHORT $LN4@Large_stri
$LN3@Large_stri:
  0003f	c7 85 30 ff ff
	ff 00 00 00 00	 mov	 DWORD PTR tv66[ebp], 0
$LN4@Large_stri:
  00049	8a 85 30 ff ff
	ff		 mov	 al, BYTE PTR tv66[ebp]

; 2285 :     }

  0004f	5f		 pop	 edi
  00050	5e		 pop	 esi
  00051	5b		 pop	 ebx
  00052	81 c4 d0 00 00
	00		 add	 esp, 208		; 000000d0H
  00058	3b ec		 cmp	 ebp, esp
  0005a	e8 00 00 00 00	 call	 __RTC_CheckEsp
  0005f	8b e5		 mov	 esp, ebp
  00061	5d		 pop	 ebp
  00062	c3		 ret	 0
?_Large_string_engaged@?$_String_val@U?$_Simple_types@D@std@@@std@@QBE_NXZ ENDP ; std::_String_val<std::_Simple_types<char> >::_Large_string_engaged
_TEXT	ENDS
; Function compile flags: /Odtp /RTCsu /ZI
; File D:\Soft\Microsoft Visual Studio\VC\Tools\MSVC\14.33.31629\include\xstring
;	COMDAT ?_Myptr@?$_String_val@U?$_Simple_types@D@std@@@std@@QAEPADXZ
_TEXT	SEGMENT
__Result$ = -20						; size = 4
_this$ = -8						; size = 4
?_Myptr@?$_String_val@U?$_Simple_types@D@std@@@std@@QAEPADXZ PROC ; std::_String_val<std::_Simple_types<char> >::_Myptr, COMDAT
; _this$ = ecx

; 2260 :     _CONSTEXPR20 value_type* _Myptr() noexcept {

  00000	55		 push	 ebp
  00001	8b ec		 mov	 ebp, esp
  00003	81 ec d8 00 00
	00		 sub	 esp, 216		; 000000d8H
  00009	53		 push	 ebx
  0000a	56		 push	 esi
  0000b	57		 push	 edi
  0000c	51		 push	 ecx
  0000d	8d 7d e8	 lea	 edi, DWORD PTR [ebp-24]
  00010	b9 06 00 00 00	 mov	 ecx, 6
  00015	b8 cc cc cc cc	 mov	 eax, -858993460		; ccccccccH
  0001a	f3 ab		 rep stosd
  0001c	59		 pop	 ecx
  0001d	89 4d f8	 mov	 DWORD PTR _this$[ebp], ecx
  00020	b9 00 00 00 00	 mov	 ecx, OFFSET __33925EC6_xstring
  00025	e8 00 00 00 00	 call	 @__CheckForDebuggerJustMyCode@4

; 2261 :         value_type* _Result = _Bx._Buf;

  0002a	8b 45 f8	 mov	 eax, DWORD PTR _this$[ebp]
  0002d	83 c0 04	 add	 eax, 4
  00030	89 45 ec	 mov	 DWORD PTR __Result$[ebp], eax

; 2262 :         if (_Large_string_engaged()) {

  00033	8b 4d f8	 mov	 ecx, DWORD PTR _this$[ebp]
  00036	e8 00 00 00 00	 call	 ?_Large_string_engaged@?$_String_val@U?$_Simple_types@D@std@@@std@@QBE_NXZ ; std::_String_val<std::_Simple_types<char> >::_Large_string_engaged
  0003b	0f b6 c0	 movzx	 eax, al
  0003e	85 c0		 test	 eax, eax
  00040	74 12		 je	 SHORT $LN2@Myptr

; 2263 :             _Result = _Unfancy(_Bx._Ptr);

  00042	8b 45 f8	 mov	 eax, DWORD PTR _this$[ebp]
  00045	8b 48 04	 mov	 ecx, DWORD PTR [eax+4]
  00048	51		 push	 ecx
  00049	e8 00 00 00 00	 call	 ??$_Unfancy@D@std@@YAPADPAD@Z ; std::_Unfancy<char>
  0004e	83 c4 04	 add	 esp, 4
  00051	89 45 ec	 mov	 DWORD PTR __Result$[ebp], eax
$LN2@Myptr:

; 2264 :         }
; 2265 : 
; 2266 :         return _Result;

  00054	8b 45 ec	 mov	 eax, DWORD PTR __Result$[ebp]

; 2267 :     }

  00057	5f		 pop	 edi
  00058	5e		 pop	 esi
  00059	5b		 pop	 ebx
  0005a	81 c4 d8 00 00
	00		 add	 esp, 216		; 000000d8H
  00060	3b ec		 cmp	 ebp, esp
  00062	e8 00 00 00 00	 call	 __RTC_CheckEsp
  00067	8b e5		 mov	 esp, ebp
  00069	5d		 pop	 ebp
  0006a	c3		 ret	 0
?_Myptr@?$_String_val@U?$_Simple_types@D@std@@@std@@QAEPADXZ ENDP ; std::_String_val<std::_Simple_types<char> >::_Myptr
_TEXT	ENDS
; Function compile flags: /Odtp /RTCsu /ZI
; File D:\Soft\Microsoft Visual Studio\VC\Tools\MSVC\14.33.31629\include\xmemory
;	COMDAT ?deallocate@?$allocator@D@std@@QAEXQADI@Z
_TEXT	SEGMENT
_this$ = -8						; size = 4
__Ptr$ = 8						; size = 4
__Count$ = 12						; size = 4
?deallocate@?$allocator@D@std@@QAEXQADI@Z PROC		; std::allocator<char>::deallocate, COMDAT
; _this$ = ecx

; 829  :     _CONSTEXPR20 void deallocate(_Ty* const _Ptr, const size_t _Count) {

  00000	55		 push	 ebp
  00001	8b ec		 mov	 ebp, esp
  00003	81 ec cc 00 00
	00		 sub	 esp, 204		; 000000ccH
  00009	53		 push	 ebx
  0000a	56		 push	 esi
  0000b	57		 push	 edi
  0000c	51		 push	 ecx
  0000d	8d 7d f4	 lea	 edi, DWORD PTR [ebp-12]
  00010	b9 03 00 00 00	 mov	 ecx, 3
  00015	b8 cc cc cc cc	 mov	 eax, -858993460		; ccccccccH
  0001a	f3 ab		 rep stosd
  0001c	59		 pop	 ecx
  0001d	89 4d f8	 mov	 DWORD PTR _this$[ebp], ecx
  00020	b9 00 00 00 00	 mov	 ecx, OFFSET __4741D85A_xmemory
  00025	e8 00 00 00 00	 call	 @__CheckForDebuggerJustMyCode@4
$LN4@deallocate:

; 830  :         _STL_ASSERT(_Ptr != nullptr || _Count == 0, "null pointer cannot point to a block of non-zero size");

  0002a	83 7d 08 00	 cmp	 DWORD PTR __Ptr$[ebp], 0
  0002e	75 06		 jne	 SHORT $LN10@deallocate
  00030	83 7d 0c 00	 cmp	 DWORD PTR __Count$[ebp], 0
  00034	75 02		 jne	 SHORT $LN7@deallocate
$LN10@deallocate:
  00036	eb 5c		 jmp	 SHORT $LN2@deallocate
$LN7@deallocate:
  00038	8b f4		 mov	 esi, esp
  0003a	68 00 00 00 00	 push	 OFFSET ??_C@_0DG@KGHKKGBC@null?5pointer?5cannot?5point?5to?5a?5@
  0003f	68 00 00 00 00	 push	 OFFSET ??_C@_02DKCKIIND@?$CFs@
  00044	6a 00		 push	 0
  00046	68 3e 03 00 00	 push	 830			; 0000033eH
  0004b	68 00 00 00 00	 push	 OFFSET ??_C@_0EK@OBOBEOCC@D?3?2Soft?2Microsoft?5Visual?5Studio@
  00050	6a 02		 push	 2
  00052	ff 15 00 00 00
	00		 call	 DWORD PTR __imp___CrtDbgReport
  00058	83 c4 18	 add	 esp, 24			; 00000018H
  0005b	3b f4		 cmp	 esi, esp
  0005d	e8 00 00 00 00	 call	 __RTC_CheckEsp
  00062	83 f8 01	 cmp	 eax, 1
  00065	75 01		 jne	 SHORT $LN12@deallocate
  00067	cc		 int	 3
$LN12@deallocate:
  00068	8b f4		 mov	 esi, esp
  0006a	6a 00		 push	 0
  0006c	68 3e 03 00 00	 push	 830			; 0000033eH
  00071	68 00 00 00 00	 push	 OFFSET ??_C@_1JE@GMPNMMMK@?$AAD?$AA?3?$AA?2?$AAS?$AAo?$AAf?$AAt?$AA?2?$AAM?$AAi?$AAc?$AAr?$AAo?$AAs?$AAo@
  00076	68 00 00 00 00	 push	 OFFSET ??_C@_11LOCGONAA@@
  0007b	68 00 00 00 00	 push	 OFFSET ??_C@_1HA@FACCKGGH@?$AA?$CC?$AAn?$AAu?$AAl?$AAl?$AA?5?$AAp?$AAo?$AAi?$AAn?$AAt?$AAe?$AAr?$AA?5?$AAc@
  00080	ff 15 00 00 00
	00		 call	 DWORD PTR __imp___invalid_parameter
  00086	83 c4 14	 add	 esp, 20			; 00000014H
  00089	3b f4		 cmp	 esi, esp
  0008b	e8 00 00 00 00	 call	 __RTC_CheckEsp
  00090	33 c0		 xor	 eax, eax
  00092	75 a4		 jne	 SHORT $LN7@deallocate
$LN2@deallocate:
  00094	33 c0		 xor	 eax, eax
  00096	75 92		 jne	 SHORT $LN4@deallocate

; 831  :         // no overflow check on the following multiply; we assume _Allocate did that check
; 832  :         _Deallocate<_New_alignof<_Ty>>(_Ptr, sizeof(_Ty) * _Count);

  00098	8b 45 0c	 mov	 eax, DWORD PTR __Count$[ebp]
  0009b	50		 push	 eax
  0009c	8b 4d 08	 mov	 ecx, DWORD PTR __Ptr$[ebp]
  0009f	51		 push	 ecx
  000a0	e8 00 00 00 00	 call	 ??$_Deallocate@$07$0A@@std@@YAXPAXI@Z ; std::_Deallocate<8,0>
  000a5	83 c4 08	 add	 esp, 8

; 833  :     }

  000a8	5f		 pop	 edi
  000a9	5e		 pop	 esi
  000aa	5b		 pop	 ebx
  000ab	81 c4 cc 00 00
	00		 add	 esp, 204		; 000000ccH
  000b1	3b ec		 cmp	 ebp, esp
  000b3	e8 00 00 00 00	 call	 __RTC_CheckEsp
  000b8	8b e5		 mov	 esp, ebp
  000ba	5d		 pop	 ebp
  000bb	c2 08 00	 ret	 8
?deallocate@?$allocator@D@std@@QAEXQADI@Z ENDP		; std::allocator<char>::deallocate
_TEXT	ENDS
; Function compile flags: /Odtp /RTCsu /ZI
; File D:\Soft\Microsoft Visual Studio\VC\Tools\MSVC\14.33.31629\include\xstring
;	COMDAT ?eof@?$_Narrow_char_traits@DH@std@@SAHXZ
_TEXT	SEGMENT
?eof@?$_Narrow_char_traits@DH@std@@SAHXZ PROC		; std::_Narrow_char_traits<char,int>::eof, COMDAT

; 471  :     _NODISCARD static constexpr int_type eof() noexcept {

  00000	55		 push	 ebp
  00001	8b ec		 mov	 ebp, esp
  00003	81 ec c0 00 00
	00		 sub	 esp, 192		; 000000c0H
  00009	53		 push	 ebx
  0000a	56		 push	 esi
  0000b	57		 push	 edi
  0000c	8b fd		 mov	 edi, ebp
  0000e	33 c9		 xor	 ecx, ecx
  00010	b8 cc cc cc cc	 mov	 eax, -858993460		; ccccccccH
  00015	f3 ab		 rep stosd
  00017	b9 00 00 00 00	 mov	 ecx, OFFSET __33925EC6_xstring
  0001c	e8 00 00 00 00	 call	 @__CheckForDebuggerJustMyCode@4

; 472  :         return static_cast<int_type>(EOF);

  00021	83 c8 ff	 or	 eax, -1

; 473  :     }

  00024	5f		 pop	 edi
  00025	5e		 pop	 esi
  00026	5b		 pop	 ebx
  00027	81 c4 c0 00 00
	00		 add	 esp, 192		; 000000c0H
  0002d	3b ec		 cmp	 ebp, esp
  0002f	e8 00 00 00 00	 call	 __RTC_CheckEsp
  00034	8b e5		 mov	 esp, ebp
  00036	5d		 pop	 ebp
  00037	c3		 ret	 0
?eof@?$_Narrow_char_traits@DH@std@@SAHXZ ENDP		; std::_Narrow_char_traits<char,int>::eof
_TEXT	ENDS
; Function compile flags: /Odtp /RTCsu /ZI
; File D:\Soft\Microsoft Visual Studio\VC\Tools\MSVC\14.33.31629\include\xstring
;	COMDAT ?eq_int_type@?$_Narrow_char_traits@DH@std@@SA_NABH0@Z
_TEXT	SEGMENT
tv65 = -196						; size = 4
__Left$ = 8						; size = 4
__Right$ = 12						; size = 4
?eq_int_type@?$_Narrow_char_traits@DH@std@@SA_NABH0@Z PROC ; std::_Narrow_char_traits<char,int>::eq_int_type, COMDAT

; 463  :     _NODISCARD static constexpr bool eq_int_type(const int_type& _Left, const int_type& _Right) noexcept {

  00000	55		 push	 ebp
  00001	8b ec		 mov	 ebp, esp
  00003	81 ec c4 00 00
	00		 sub	 esp, 196		; 000000c4H
  00009	53		 push	 ebx
  0000a	56		 push	 esi
  0000b	57		 push	 edi
  0000c	8d 7d fc	 lea	 edi, DWORD PTR [ebp-4]
  0000f	b9 01 00 00 00	 mov	 ecx, 1
  00014	b8 cc cc cc cc	 mov	 eax, -858993460		; ccccccccH
  00019	f3 ab		 rep stosd
  0001b	b9 00 00 00 00	 mov	 ecx, OFFSET __33925EC6_xstring
  00020	e8 00 00 00 00	 call	 @__CheckForDebuggerJustMyCode@4

; 464  :         return _Left == _Right;

  00025	8b 45 08	 mov	 eax, DWORD PTR __Left$[ebp]
  00028	8b 4d 0c	 mov	 ecx, DWORD PTR __Right$[ebp]
  0002b	8b 10		 mov	 edx, DWORD PTR [eax]
  0002d	3b 11		 cmp	 edx, DWORD PTR [ecx]
  0002f	75 0c		 jne	 SHORT $LN3@eq_int_typ
  00031	c7 85 3c ff ff
	ff 01 00 00 00	 mov	 DWORD PTR tv65[ebp], 1
  0003b	eb 0a		 jmp	 SHORT $LN4@eq_int_typ
$LN3@eq_int_typ:
  0003d	c7 85 3c ff ff
	ff 00 00 00 00	 mov	 DWORD PTR tv65[ebp], 0
$LN4@eq_int_typ:
  00047	8a 85 3c ff ff
	ff		 mov	 al, BYTE PTR tv65[ebp]

; 465  :     }

  0004d	5f		 pop	 edi
  0004e	5e		 pop	 esi
  0004f	5b		 pop	 ebx
  00050	81 c4 c4 00 00
	00		 add	 esp, 196		; 000000c4H
  00056	3b ec		 cmp	 ebp, esp
  00058	e8 00 00 00 00	 call	 __RTC_CheckEsp
  0005d	8b e5		 mov	 esp, ebp
  0005f	5d		 pop	 ebp
  00060	c3		 ret	 0
?eq_int_type@?$_Narrow_char_traits@DH@std@@SA_NABH0@Z ENDP ; std::_Narrow_char_traits<char,int>::eq_int_type
_TEXT	ENDS
; Function compile flags: /Odtp /RTCsu /ZI
; File D:\Soft\Microsoft Visual Studio\VC\Tools\MSVC\14.33.31629\include\xstring
;	COMDAT ?assign@?$_Narrow_char_traits@DH@std@@SAXAADABD@Z
_TEXT	SEGMENT
__Left$ = 8						; size = 4
__Right$ = 12						; size = 4
?assign@?$_Narrow_char_traits@DH@std@@SAXAADABD@Z PROC	; std::_Narrow_char_traits<char,int>::assign, COMDAT

; 438  :     static _CONSTEXPR17 void assign(_Elem& _Left, const _Elem& _Right) noexcept {

  00000	55		 push	 ebp
  00001	8b ec		 mov	 ebp, esp
  00003	81 ec c0 00 00
	00		 sub	 esp, 192		; 000000c0H
  00009	53		 push	 ebx
  0000a	56		 push	 esi
  0000b	57		 push	 edi
  0000c	8b fd		 mov	 edi, ebp
  0000e	33 c9		 xor	 ecx, ecx
  00010	b8 cc cc cc cc	 mov	 eax, -858993460		; ccccccccH
  00015	f3 ab		 rep stosd
  00017	b9 00 00 00 00	 mov	 ecx, OFFSET __33925EC6_xstring
  0001c	e8 00 00 00 00	 call	 @__CheckForDebuggerJustMyCode@4

; 439  : #if _HAS_CXX20
; 440  :         if (_STD is_constant_evaluated()) {
; 441  :             return _Primary_char_traits::assign(_Left, _Right);
; 442  :         }
; 443  : #endif // _HAS_CXX20
; 444  :         _Left = _Right;

  00021	8b 45 08	 mov	 eax, DWORD PTR __Left$[ebp]
  00024	8b 4d 0c	 mov	 ecx, DWORD PTR __Right$[ebp]
  00027	8a 11		 mov	 dl, BYTE PTR [ecx]
  00029	88 10		 mov	 BYTE PTR [eax], dl

; 445  :     }

  0002b	5f		 pop	 edi
  0002c	5e		 pop	 esi
  0002d	5b		 pop	 ebx
  0002e	81 c4 c0 00 00
	00		 add	 esp, 192		; 000000c0H
  00034	3b ec		 cmp	 ebp, esp
  00036	e8 00 00 00 00	 call	 __RTC_CheckEsp
  0003b	8b e5		 mov	 esp, ebp
  0003d	5d		 pop	 ebp
  0003e	c3		 ret	 0
?assign@?$_Narrow_char_traits@DH@std@@SAXAADABD@Z ENDP	; std::_Narrow_char_traits<char,int>::assign
_TEXT	ENDS
; Function compile flags: /Odtp /RTCsu /ZI
; File D:\Soft\Microsoft Visual Studio\VC\Tools\MSVC\14.33.31629\include\xstring
;	COMDAT ?length@?$_Narrow_char_traits@DH@std@@SAIQBD@Z
_TEXT	SEGMENT
__First$ = 8						; size = 4
?length@?$_Narrow_char_traits@DH@std@@SAIQBD@Z PROC	; std::_Narrow_char_traits<char,int>::length, COMDAT

; 385  :     _NODISCARD static _CONSTEXPR17 size_t length(_In_z_ const _Elem* const _First) noexcept /* strengthened */ {

  00000	55		 push	 ebp
  00001	8b ec		 mov	 ebp, esp
  00003	81 ec c0 00 00
	00		 sub	 esp, 192		; 000000c0H
  00009	53		 push	 ebx
  0000a	56		 push	 esi
  0000b	57		 push	 edi
  0000c	8b fd		 mov	 edi, ebp
  0000e	33 c9		 xor	 ecx, ecx
  00010	b8 cc cc cc cc	 mov	 eax, -858993460		; ccccccccH
  00015	f3 ab		 rep stosd
  00017	b9 00 00 00 00	 mov	 ecx, OFFSET __33925EC6_xstring
  0001c	e8 00 00 00 00	 call	 @__CheckForDebuggerJustMyCode@4

; 386  :         // find length of null-terminated string
; 387  : #if _HAS_CXX17
; 388  : #ifdef __cpp_char8_t
; 389  :         if constexpr (is_same_v<_Elem, char8_t>) {
; 390  : #if _HAS_U8_INTRINSICS
; 391  :             return __builtin_u8strlen(_First);
; 392  : #else // ^^^ use u8 intrinsics / no u8 intrinsics vvv
; 393  :             return _Primary_char_traits::length(_First);
; 394  : #endif // _HAS_U8_INTRINSICS
; 395  :         } else
; 396  : #endif // __cpp_char8_t
; 397  :         {
; 398  :             return __builtin_strlen(_First);
; 399  :         }
; 400  : #else // _HAS_CXX17
; 401  :         return _CSTD strlen(reinterpret_cast<const char*>(_First));

  00021	8b 45 08	 mov	 eax, DWORD PTR __First$[ebp]
  00024	50		 push	 eax
  00025	e8 00 00 00 00	 call	 _strlen
  0002a	83 c4 04	 add	 esp, 4

; 402  : #endif // _HAS_CXX17
; 403  :     }

  0002d	5f		 pop	 edi
  0002e	5e		 pop	 esi
  0002f	5b		 pop	 ebx
  00030	81 c4 c0 00 00
	00		 add	 esp, 192		; 000000c0H
  00036	3b ec		 cmp	 ebp, esp
  00038	e8 00 00 00 00	 call	 __RTC_CheckEsp
  0003d	8b e5		 mov	 esp, ebp
  0003f	5d		 pop	 ebp
  00040	c3		 ret	 0
?length@?$_Narrow_char_traits@DH@std@@SAIQBD@Z ENDP	; std::_Narrow_char_traits<char,int>::length
_TEXT	ENDS
; Function compile flags: /Odtp /RTCsu /ZI
; File D:\Soft\Microsoft Visual Studio\VC\Tools\MSVC\14.33.31629\include\xmemory
;	COMDAT ?_Orphan_all_locked_v3@_Container_base12@std@@AAEXXZ
_TEXT	SEGMENT
__Lock$ = -24						; size = 4
_this$ = -12						; size = 4
__$ArrayPad$ = -4					; size = 4
?_Orphan_all_locked_v3@_Container_base12@std@@AAEXXZ PROC ; std::_Container_base12::_Orphan_all_locked_v3, COMDAT
; _this$ = ecx

; 1083 :     void _Orphan_all_locked_v3() noexcept {

  00000	55		 push	 ebp
  00001	8b ec		 mov	 ebp, esp
  00003	81 ec dc 00 00
	00		 sub	 esp, 220		; 000000dcH
  00009	53		 push	 ebx
  0000a	56		 push	 esi
  0000b	57		 push	 edi
  0000c	51		 push	 ecx
  0000d	8d 7d e4	 lea	 edi, DWORD PTR [ebp-28]
  00010	b9 07 00 00 00	 mov	 ecx, 7
  00015	b8 cc cc cc cc	 mov	 eax, -858993460		; ccccccccH
  0001a	f3 ab		 rep stosd
  0001c	59		 pop	 ecx
  0001d	a1 00 00 00 00	 mov	 eax, DWORD PTR ___security_cookie
  00022	33 c5		 xor	 eax, ebp
  00024	89 45 fc	 mov	 DWORD PTR __$ArrayPad$[ebp], eax
  00027	89 4d f4	 mov	 DWORD PTR _this$[ebp], ecx
  0002a	b9 00 00 00 00	 mov	 ecx, OFFSET __4741D85A_xmemory
  0002f	e8 00 00 00 00	 call	 @__CheckForDebuggerJustMyCode@4

; 1084 :         _Lockit _Lock(_LOCK_DEBUG);

  00034	8b f4		 mov	 esi, esp
  00036	6a 03		 push	 3
  00038	8d 4d e8	 lea	 ecx, DWORD PTR __Lock$[ebp]
  0003b	ff 15 00 00 00
	00		 call	 DWORD PTR __imp_??0_Lockit@std@@QAE@H@Z
  00041	3b f4		 cmp	 esi, esp
  00043	e8 00 00 00 00	 call	 __RTC_CheckEsp

; 1085 :         _Orphan_all_unlocked_v3();

  00048	8b 4d f4	 mov	 ecx, DWORD PTR _this$[ebp]
  0004b	e8 00 00 00 00	 call	 ?_Orphan_all_unlocked_v3@_Container_base12@std@@AAEXXZ ; std::_Container_base12::_Orphan_all_unlocked_v3

; 1086 :     }

  00050	8b f4		 mov	 esi, esp
  00052	8d 4d e8	 lea	 ecx, DWORD PTR __Lock$[ebp]
  00055	ff 15 00 00 00
	00		 call	 DWORD PTR __imp_??1_Lockit@std@@QAE@XZ
  0005b	3b f4		 cmp	 esi, esp
  0005d	e8 00 00 00 00	 call	 __RTC_CheckEsp
  00062	52		 push	 edx
  00063	8b cd		 mov	 ecx, ebp
  00065	50		 push	 eax
  00066	8d 15 00 00 00
	00		 lea	 edx, DWORD PTR $LN5@Orphan_all
  0006c	e8 00 00 00 00	 call	 @_RTC_CheckStackVars@8
  00071	58		 pop	 eax
  00072	5a		 pop	 edx
  00073	5f		 pop	 edi
  00074	5e		 pop	 esi
  00075	5b		 pop	 ebx
  00076	8b 4d fc	 mov	 ecx, DWORD PTR __$ArrayPad$[ebp]
  00079	33 cd		 xor	 ecx, ebp
  0007b	e8 00 00 00 00	 call	 @__security_check_cookie@4
  00080	81 c4 dc 00 00
	00		 add	 esp, 220		; 000000dcH
  00086	3b ec		 cmp	 ebp, esp
  00088	e8 00 00 00 00	 call	 __RTC_CheckEsp
  0008d	8b e5		 mov	 esp, ebp
  0008f	5d		 pop	 ebp
  00090	c3		 ret	 0
  00091	0f 1f 00	 npad	 3
$LN5@Orphan_all:
  00094	01 00 00 00	 DD	 1
  00098	00 00 00 00	 DD	 $LN4@Orphan_all
$LN4@Orphan_all:
  0009c	e8 ff ff ff	 DD	 -24			; ffffffe8H
  000a0	04 00 00 00	 DD	 4
  000a4	00 00 00 00	 DD	 $LN3@Orphan_all
$LN3@Orphan_all:
  000a8	5f		 DB	 95			; 0000005fH
  000a9	4c		 DB	 76			; 0000004cH
  000aa	6f		 DB	 111			; 0000006fH
  000ab	63		 DB	 99			; 00000063H
  000ac	6b		 DB	 107			; 0000006bH
  000ad	00		 DB	 0
?_Orphan_all_locked_v3@_Container_base12@std@@AAEXXZ ENDP ; std::_Container_base12::_Orphan_all_locked_v3
_TEXT	ENDS
; Function compile flags: /Odtp /RTCsu /ZI
; File D:\Soft\Microsoft Visual Studio\VC\Tools\MSVC\14.33.31629\include\xmemory
;	COMDAT ?_Orphan_all_unlocked_v3@_Container_base12@std@@AAEXXZ
_TEXT	SEGMENT
__Pnext$1 = -20						; size = 4
_this$ = -8						; size = 4
?_Orphan_all_unlocked_v3@_Container_base12@std@@AAEXXZ PROC ; std::_Container_base12::_Orphan_all_unlocked_v3, COMDAT
; _this$ = ecx

; 1224 : _CONSTEXPR20 void _Container_base12::_Orphan_all_unlocked_v3() noexcept {

  00000	55		 push	 ebp
  00001	8b ec		 mov	 ebp, esp
  00003	81 ec d8 00 00
	00		 sub	 esp, 216		; 000000d8H
  00009	53		 push	 ebx
  0000a	56		 push	 esi
  0000b	57		 push	 edi
  0000c	51		 push	 ecx
  0000d	8d 7d e8	 lea	 edi, DWORD PTR [ebp-24]
  00010	b9 06 00 00 00	 mov	 ecx, 6
  00015	b8 cc cc cc cc	 mov	 eax, -858993460		; ccccccccH
  0001a	f3 ab		 rep stosd
  0001c	59		 pop	 ecx
  0001d	89 4d f8	 mov	 DWORD PTR _this$[ebp], ecx
  00020	b9 00 00 00 00	 mov	 ecx, OFFSET __4741D85A_xmemory
  00025	e8 00 00 00 00	 call	 @__CheckForDebuggerJustMyCode@4

; 1225 :     if (!_Myproxy) { // no proxy, already done

  0002a	8b 45 f8	 mov	 eax, DWORD PTR _this$[ebp]
  0002d	83 38 00	 cmp	 DWORD PTR [eax], 0
  00030	75 02		 jne	 SHORT $LN5@Orphan_all

; 1226 :         return;

  00032	eb 3b		 jmp	 SHORT $LN6@Orphan_all
$LN5@Orphan_all:

; 1227 :     }
; 1228 : 
; 1229 :     // proxy allocated, drain it
; 1230 :     for (auto& _Pnext = _Myproxy->_Myfirstiter; _Pnext; _Pnext = _Pnext->_Mynextiter) { // TRANSITION, VSO-1269037

  00034	8b 45 f8	 mov	 eax, DWORD PTR _this$[ebp]
  00037	8b 08		 mov	 ecx, DWORD PTR [eax]
  00039	83 c1 04	 add	 ecx, 4
  0003c	89 4d ec	 mov	 DWORD PTR __Pnext$1[ebp], ecx
  0003f	eb 0d		 jmp	 SHORT $LN4@Orphan_all
$LN2@Orphan_all:
  00041	8b 45 ec	 mov	 eax, DWORD PTR __Pnext$1[ebp]
  00044	8b 08		 mov	 ecx, DWORD PTR [eax]
  00046	8b 55 ec	 mov	 edx, DWORD PTR __Pnext$1[ebp]
  00049	8b 41 04	 mov	 eax, DWORD PTR [ecx+4]
  0004c	89 02		 mov	 DWORD PTR [edx], eax
$LN4@Orphan_all:
  0004e	8b 45 ec	 mov	 eax, DWORD PTR __Pnext$1[ebp]
  00051	83 38 00	 cmp	 DWORD PTR [eax], 0
  00054	74 0d		 je	 SHORT $LN3@Orphan_all

; 1231 :         _Pnext->_Myproxy = nullptr;

  00056	8b 45 ec	 mov	 eax, DWORD PTR __Pnext$1[ebp]
  00059	8b 08		 mov	 ecx, DWORD PTR [eax]
  0005b	c7 01 00 00 00
	00		 mov	 DWORD PTR [ecx], 0

; 1232 :     }

  00061	eb de		 jmp	 SHORT $LN2@Orphan_all
$LN3@Orphan_all:

; 1233 :     _Myproxy->_Myfirstiter = nullptr;

  00063	8b 45 f8	 mov	 eax, DWORD PTR _this$[ebp]
  00066	8b 08		 mov	 ecx, DWORD PTR [eax]
  00068	c7 41 04 00 00
	00 00		 mov	 DWORD PTR [ecx+4], 0
$LN6@Orphan_all:

; 1234 : }

  0006f	5f		 pop	 edi
  00070	5e		 pop	 esi
  00071	5b		 pop	 ebx
  00072	81 c4 d8 00 00
	00		 add	 esp, 216		; 000000d8H
  00078	3b ec		 cmp	 ebp, esp
  0007a	e8 00 00 00 00	 call	 __RTC_CheckEsp
  0007f	8b e5		 mov	 esp, ebp
  00081	5d		 pop	 ebp
  00082	c3		 ret	 0
?_Orphan_all_unlocked_v3@_Container_base12@std@@AAEXXZ ENDP ; std::_Container_base12::_Orphan_all_unlocked_v3
_TEXT	ENDS
; Function compile flags: /Odtp /RTCsu /ZI
; File D:\Soft\Microsoft Visual Studio\VC\Tools\MSVC\14.33.31629\include\xmemory
;	COMDAT ?_Orphan_all@_Container_base12@std@@QAEXXZ
_TEXT	SEGMENT
_this$ = -8						; size = 4
?_Orphan_all@_Container_base12@std@@QAEXXZ PROC		; std::_Container_base12::_Orphan_all, COMDAT
; _this$ = ecx

; 1236 : _CONSTEXPR20 void _Container_base12::_Orphan_all() noexcept {

  00000	55		 push	 ebp
  00001	8b ec		 mov	 ebp, esp
  00003	81 ec cc 00 00
	00		 sub	 esp, 204		; 000000ccH
  00009	53		 push	 ebx
  0000a	56		 push	 esi
  0000b	57		 push	 edi
  0000c	51		 push	 ecx
  0000d	8d 7d f4	 lea	 edi, DWORD PTR [ebp-12]
  00010	b9 03 00 00 00	 mov	 ecx, 3
  00015	b8 cc cc cc cc	 mov	 eax, -858993460		; ccccccccH
  0001a	f3 ab		 rep stosd
  0001c	59		 pop	 ecx
  0001d	89 4d f8	 mov	 DWORD PTR _this$[ebp], ecx
  00020	b9 00 00 00 00	 mov	 ecx, OFFSET __4741D85A_xmemory
  00025	e8 00 00 00 00	 call	 @__CheckForDebuggerJustMyCode@4

; 1237 : #if _ITERATOR_DEBUG_LEVEL == 2
; 1238 : #if _HAS_CXX20
; 1239 :     if (_STD is_constant_evaluated()) {
; 1240 :         _Orphan_all_unlocked_v3();
; 1241 :     } else
; 1242 : #endif // _HAS_CXX20
; 1243 :     {
; 1244 :         _Orphan_all_locked_v3();

  0002a	8b 4d f8	 mov	 ecx, DWORD PTR _this$[ebp]
  0002d	e8 00 00 00 00	 call	 ?_Orphan_all_locked_v3@_Container_base12@std@@AAEXXZ ; std::_Container_base12::_Orphan_all_locked_v3

; 1245 :     }
; 1246 : #endif // _ITERATOR_DEBUG_LEVEL == 2
; 1247 : }

  00032	5f		 pop	 edi
  00033	5e		 pop	 esi
  00034	5b		 pop	 ebx
  00035	81 c4 cc 00 00
	00		 add	 esp, 204		; 000000ccH
  0003b	3b ec		 cmp	 ebp, esp
  0003d	e8 00 00 00 00	 call	 __RTC_CheckEsp
  00042	8b e5		 mov	 esp, ebp
  00044	5d		 pop	 ebp
  00045	c3		 ret	 0
?_Orphan_all@_Container_base12@std@@QAEXXZ ENDP		; std::_Container_base12::_Orphan_all
_TEXT	ENDS
; Function compile flags: /Odtp /RTCsu /ZI
; File D:\Soft\Microsoft Visual Studio\VC\Tools\MSVC\14.33.31629\include\xmemory
;	COMDAT ?_Adjust_manually_vector_aligned@std@@YAXAAPAXAAI@Z
_TEXT	SEGMENT
__Back_shift$ = -44					; size = 4
__Min_back_shift$ = -32					; size = 4
__Ptr_container$ = -20					; size = 4
__Ptr_user$ = -8					; size = 4
__Ptr$ = 8						; size = 4
__Bytes$ = 12						; size = 4
?_Adjust_manually_vector_aligned@std@@YAXAAPAXAAI@Z PROC ; std::_Adjust_manually_vector_aligned, COMDAT

; 147  : inline void _Adjust_manually_vector_aligned(void*& _Ptr, size_t& _Bytes) {

  00000	55		 push	 ebp
  00001	8b ec		 mov	 ebp, esp
  00003	81 ec f0 00 00
	00		 sub	 esp, 240		; 000000f0H
  00009	53		 push	 ebx
  0000a	56		 push	 esi
  0000b	57		 push	 edi
  0000c	8d 7d d0	 lea	 edi, DWORD PTR [ebp-48]
  0000f	b9 0c 00 00 00	 mov	 ecx, 12			; 0000000cH
  00014	b8 cc cc cc cc	 mov	 eax, -858993460		; ccccccccH
  00019	f3 ab		 rep stosd
  0001b	b9 00 00 00 00	 mov	 ecx, OFFSET __4741D85A_xmemory
  00020	e8 00 00 00 00	 call	 @__CheckForDebuggerJustMyCode@4

; 148  :     // adjust parameters from _Allocate_manually_vector_aligned to pass to operator delete
; 149  :     _Bytes += _Non_user_size;

  00025	8b 45 0c	 mov	 eax, DWORD PTR __Bytes$[ebp]
  00028	8b 08		 mov	 ecx, DWORD PTR [eax]
  0002a	83 c1 27	 add	 ecx, 39			; 00000027H
  0002d	8b 55 0c	 mov	 edx, DWORD PTR __Bytes$[ebp]
  00030	89 0a		 mov	 DWORD PTR [edx], ecx

; 150  : 
; 151  :     const uintptr_t* const _Ptr_user = static_cast<uintptr_t*>(_Ptr);

  00032	8b 45 08	 mov	 eax, DWORD PTR __Ptr$[ebp]
  00035	8b 08		 mov	 ecx, DWORD PTR [eax]
  00037	89 4d f8	 mov	 DWORD PTR __Ptr_user$[ebp], ecx

; 152  :     const uintptr_t _Ptr_container   = _Ptr_user[-1];

  0003a	b8 04 00 00 00	 mov	 eax, 4
  0003f	6b c8 ff	 imul	 ecx, eax, -1
  00042	8b 55 f8	 mov	 edx, DWORD PTR __Ptr_user$[ebp]
  00045	8b 04 0a	 mov	 eax, DWORD PTR [edx+ecx]
  00048	89 45 ec	 mov	 DWORD PTR __Ptr_container$[ebp], eax
$LN4@Adjust_man:

; 153  : 
; 154  :     // If the following asserts, it likely means that we are performing
; 155  :     // an aligned delete on memory coming from an unaligned allocation.
; 156  :     _STL_ASSERT(_Ptr_user[-2] == _Big_allocation_sentinel, "invalid argument");

  0004b	b8 04 00 00 00	 mov	 eax, 4
  00050	6b c8 fe	 imul	 ecx, eax, -2
  00053	8b 55 f8	 mov	 edx, DWORD PTR __Ptr_user$[ebp]
  00056	81 3c 0a fa fa
	fa fa		 cmp	 DWORD PTR [edx+ecx], -84215046 ; fafafafaH
  0005d	75 02		 jne	 SHORT $LN7@Adjust_man
  0005f	eb 64		 jmp	 SHORT $LN2@Adjust_man
$LN7@Adjust_man:
  00061	8b f4		 mov	 esi, esp
  00063	68 00 00 00 00	 push	 OFFSET ??_C@_0BB@FCMFBGOM@invalid?5argument@
  00068	68 00 00 00 00	 push	 OFFSET ??_C@_02DKCKIIND@?$CFs@
  0006d	6a 00		 push	 0
  0006f	a1 00 00 00 00	 mov	 eax, DWORD PTR ?__LINE__Var@?0??_Adjust_manually_vector_aligned@std@@YAXAAPAXAAI@Z@4JA
  00074	83 c0 09	 add	 eax, 9
  00077	50		 push	 eax
  00078	68 00 00 00 00	 push	 OFFSET ??_C@_0EK@OBOBEOCC@D?3?2Soft?2Microsoft?5Visual?5Studio@
  0007d	6a 02		 push	 2
  0007f	ff 15 00 00 00
	00		 call	 DWORD PTR __imp___CrtDbgReport
  00085	83 c4 18	 add	 esp, 24			; 00000018H
  00088	3b f4		 cmp	 esi, esp
  0008a	e8 00 00 00 00	 call	 __RTC_CheckEsp
  0008f	83 f8 01	 cmp	 eax, 1
  00092	75 01		 jne	 SHORT $LN19@Adjust_man
  00094	cc		 int	 3
$LN19@Adjust_man:
  00095	8b f4		 mov	 esi, esp
  00097	6a 00		 push	 0
  00099	a1 00 00 00 00	 mov	 eax, DWORD PTR ?__LINE__Var@?0??_Adjust_manually_vector_aligned@std@@YAXAAPAXAAI@Z@4JA
  0009e	83 c0 09	 add	 eax, 9
  000a1	50		 push	 eax
  000a2	68 00 00 00 00	 push	 OFFSET ??_C@_1JE@GMPNMMMK@?$AAD?$AA?3?$AA?2?$AAS?$AAo?$AAf?$AAt?$AA?2?$AAM?$AAi?$AAc?$AAr?$AAo?$AAs?$AAo@
  000a7	68 00 00 00 00	 push	 OFFSET ??_C@_11LOCGONAA@@
  000ac	68 00 00 00 00	 push	 OFFSET ??_C@_1CG@JNLFBNGN@?$AA?$CC?$AAi?$AAn?$AAv?$AAa?$AAl?$AAi?$AAd?$AA?5?$AAa?$AAr?$AAg?$AAu?$AAm?$AAe@
  000b1	ff 15 00 00 00
	00		 call	 DWORD PTR __imp___invalid_parameter
  000b7	83 c4 14	 add	 esp, 20			; 00000014H
  000ba	3b f4		 cmp	 esi, esp
  000bc	e8 00 00 00 00	 call	 __RTC_CheckEsp
  000c1	33 c0		 xor	 eax, eax
  000c3	75 9c		 jne	 SHORT $LN7@Adjust_man
$LN2@Adjust_man:
  000c5	33 c0		 xor	 eax, eax
  000c7	75 82		 jne	 SHORT $LN4@Adjust_man

; 157  : 
; 158  :     // Extra paranoia on aligned allocation/deallocation; ensure _Ptr_container is
; 159  :     // in range [_Min_back_shift, _Non_user_size]
; 160  : #ifdef _DEBUG
; 161  :     constexpr uintptr_t _Min_back_shift = 2 * sizeof(void*);

  000c9	c7 45 e0 08 00
	00 00		 mov	 DWORD PTR __Min_back_shift$[ebp], 8

; 162  : #else // ^^^ _DEBUG ^^^ // vvv !_DEBUG vvv
; 163  :     constexpr uintptr_t _Min_back_shift = sizeof(void*);
; 164  : #endif // _DEBUG
; 165  :     const uintptr_t _Back_shift = reinterpret_cast<uintptr_t>(_Ptr) - _Ptr_container;

  000d0	8b 45 08	 mov	 eax, DWORD PTR __Ptr$[ebp]
  000d3	8b 08		 mov	 ecx, DWORD PTR [eax]
  000d5	2b 4d ec	 sub	 ecx, DWORD PTR __Ptr_container$[ebp]
  000d8	89 4d d4	 mov	 DWORD PTR __Back_shift$[ebp], ecx
$LN10@Adjust_man:

; 166  :     _STL_VERIFY(_Back_shift >= _Min_back_shift && _Back_shift <= _Non_user_size, "invalid argument");

  000db	83 7d d4 08	 cmp	 DWORD PTR __Back_shift$[ebp], 8
  000df	72 08		 jb	 SHORT $LN13@Adjust_man
  000e1	83 7d d4 27	 cmp	 DWORD PTR __Back_shift$[ebp], 39 ; 00000027H
  000e5	77 02		 ja	 SHORT $LN13@Adjust_man
  000e7	eb 64		 jmp	 SHORT $LN8@Adjust_man
$LN13@Adjust_man:
  000e9	8b f4		 mov	 esi, esp
  000eb	68 00 00 00 00	 push	 OFFSET ??_C@_0BB@FCMFBGOM@invalid?5argument@
  000f0	68 00 00 00 00	 push	 OFFSET ??_C@_02DKCKIIND@?$CFs@
  000f5	6a 00		 push	 0
  000f7	a1 00 00 00 00	 mov	 eax, DWORD PTR ?__LINE__Var@?0??_Adjust_manually_vector_aligned@std@@YAXAAPAXAAI@Z@4JA
  000fc	83 c0 13	 add	 eax, 19			; 00000013H
  000ff	50		 push	 eax
  00100	68 00 00 00 00	 push	 OFFSET ??_C@_0EK@OBOBEOCC@D?3?2Soft?2Microsoft?5Visual?5Studio@
  00105	6a 02		 push	 2
  00107	ff 15 00 00 00
	00		 call	 DWORD PTR __imp___CrtDbgReport
  0010d	83 c4 18	 add	 esp, 24			; 00000018H
  00110	3b f4		 cmp	 esi, esp
  00112	e8 00 00 00 00	 call	 __RTC_CheckEsp
  00117	83 f8 01	 cmp	 eax, 1
  0011a	75 01		 jne	 SHORT $LN20@Adjust_man
  0011c	cc		 int	 3
$LN20@Adjust_man:
  0011d	8b f4		 mov	 esi, esp
  0011f	6a 00		 push	 0
  00121	a1 00 00 00 00	 mov	 eax, DWORD PTR ?__LINE__Var@?0??_Adjust_manually_vector_aligned@std@@YAXAAPAXAAI@Z@4JA
  00126	83 c0 13	 add	 eax, 19			; 00000013H
  00129	50		 push	 eax
  0012a	68 00 00 00 00	 push	 OFFSET ??_C@_1JE@GMPNMMMK@?$AAD?$AA?3?$AA?2?$AAS?$AAo?$AAf?$AAt?$AA?2?$AAM?$AAi?$AAc?$AAr?$AAo?$AAs?$AAo@
  0012f	68 00 00 00 00	 push	 OFFSET ??_C@_11LOCGONAA@@
  00134	68 00 00 00 00	 push	 OFFSET ??_C@_1CG@JNLFBNGN@?$AA?$CC?$AAi?$AAn?$AAv?$AAa?$AAl?$AAi?$AAd?$AA?5?$AAa?$AAr?$AAg?$AAu?$AAm?$AAe@
  00139	ff 15 00 00 00
	00		 call	 DWORD PTR __imp___invalid_parameter
  0013f	83 c4 14	 add	 esp, 20			; 00000014H
  00142	3b f4		 cmp	 esi, esp
  00144	e8 00 00 00 00	 call	 __RTC_CheckEsp
  00149	33 c0		 xor	 eax, eax
  0014b	75 9c		 jne	 SHORT $LN13@Adjust_man
$LN8@Adjust_man:
  0014d	33 c0		 xor	 eax, eax
  0014f	75 8a		 jne	 SHORT $LN10@Adjust_man

; 167  :     _Ptr = reinterpret_cast<void*>(_Ptr_container);

  00151	8b 45 08	 mov	 eax, DWORD PTR __Ptr$[ebp]
  00154	8b 4d ec	 mov	 ecx, DWORD PTR __Ptr_container$[ebp]
  00157	89 08		 mov	 DWORD PTR [eax], ecx

; 168  : }

  00159	5f		 pop	 edi
  0015a	5e		 pop	 esi
  0015b	5b		 pop	 ebx
  0015c	81 c4 f0 00 00
	00		 add	 esp, 240		; 000000f0H
  00162	3b ec		 cmp	 ebp, esp
  00164	e8 00 00 00 00	 call	 __RTC_CheckEsp
  00169	8b e5		 mov	 esp, ebp
  0016b	5d		 pop	 ebp
  0016c	c3		 ret	 0
?_Adjust_manually_vector_aligned@std@@YAXAAPAXAAI@Z ENDP ; std::_Adjust_manually_vector_aligned
_TEXT	ENDS
; Function compile flags: /Odtp /RTCsu /ZI
; File D:\BSTU\2 sem\KPO\Labs\1 lab\lab1\first task\DATA_CHECK.cpp
;	COMDAT ?__empty_global_delete@@YAXPAXI@Z
_TEXT	SEGMENT
___formal$ = 8						; size = 4
___formal$ = 12						; size = 4
?__empty_global_delete@@YAXPAXI@Z PROC			; __empty_global_delete, COMDAT

  00000	55		 push	 ebp
  00001	8b ec		 mov	 ebp, esp
  00003	81 ec c0 00 00
	00		 sub	 esp, 192		; 000000c0H
  00009	53		 push	 ebx
  0000a	56		 push	 esi
  0000b	57		 push	 edi
  0000c	8b fd		 mov	 edi, ebp
  0000e	33 c9		 xor	 ecx, ecx
  00010	b8 cc cc cc cc	 mov	 eax, -858993460		; ccccccccH
  00015	f3 ab		 rep stosd
  00017	b9 00 00 00 00	 mov	 ecx, OFFSET __C2A978EA_DATA_CHECK@cpp
  0001c	e8 00 00 00 00	 call	 @__CheckForDebuggerJustMyCode@4
  00021	5f		 pop	 edi
  00022	5e		 pop	 esi
  00023	5b		 pop	 ebx
  00024	81 c4 c0 00 00
	00		 add	 esp, 192		; 000000c0H
  0002a	3b ec		 cmp	 ebp, esp
  0002c	e8 00 00 00 00	 call	 __RTC_CheckEsp
  00031	8b e5		 mov	 esp, ebp
  00033	5d		 pop	 ebp
  00034	c3		 ret	 0
?__empty_global_delete@@YAXPAXI@Z ENDP			; __empty_global_delete
_TEXT	ENDS
; Function compile flags: /Odtp /RTCsu /ZI
; File D:\BSTU\2 sem\KPO\Labs\1 lab\lab1\first task\DATA_CHECK.cpp
;	COMDAT ?__empty_global_delete@@YAXPAX@Z
_TEXT	SEGMENT
___formal$ = 8						; size = 4
?__empty_global_delete@@YAXPAX@Z PROC			; __empty_global_delete, COMDAT

  00000	55		 push	 ebp
  00001	8b ec		 mov	 ebp, esp
  00003	81 ec c0 00 00
	00		 sub	 esp, 192		; 000000c0H
  00009	53		 push	 ebx
  0000a	56		 push	 esi
  0000b	57		 push	 edi
  0000c	8b fd		 mov	 edi, ebp
  0000e	33 c9		 xor	 ecx, ecx
  00010	b8 cc cc cc cc	 mov	 eax, -858993460		; ccccccccH
  00015	f3 ab		 rep stosd
  00017	b9 00 00 00 00	 mov	 ecx, OFFSET __C2A978EA_DATA_CHECK@cpp
  0001c	e8 00 00 00 00	 call	 @__CheckForDebuggerJustMyCode@4
  00021	5f		 pop	 edi
  00022	5e		 pop	 esi
  00023	5b		 pop	 ebx
  00024	81 c4 c0 00 00
	00		 add	 esp, 192		; 000000c0H
  0002a	3b ec		 cmp	 ebp, esp
  0002c	e8 00 00 00 00	 call	 __RTC_CheckEsp
  00031	8b e5		 mov	 esp, ebp
  00033	5d		 pop	 ebp
  00034	c3		 ret	 0
?__empty_global_delete@@YAXPAX@Z ENDP			; __empty_global_delete
_TEXT	ENDS
END
