; Listing generated by Microsoft (R) Optimizing Compiler Version 19.33.31629.0 

	TITLE	D:\BSTU\2 sem\KPO\Labs\1 lab\lab1\first task\Debug\DATE_CHECK.obj
	.686P
	.XMM
	include listing.inc
	.model	flat

INCLUDELIB MSVCRTD
INCLUDELIB OLDNAMES

PUBLIC	?days_in_month@@3PAHA				; days_in_month
msvcjmc	SEGMENT
__F27E49E1_first task@pch DB 01H
__825CB8E5_limits DB 01H
__BD99428F_exception DB 01H
__AB5758BB_vcruntime_new@h DB 01H
__DACB2C8B_xstddef DB 01H
__50113343_system_error DB 01H
__34D778D2_stdexcept DB 01H
__1325181E_xlocinfo DB 01H
__7C7308CF_xutility DB 01H
__0CACFBD6_typeinfo DB 01H
__83E9158C_vcruntime_typeinfo@h DB 01H
__B6F1CB87_vcruntime_exception@h DB 01H
__D5779D54_stdafx@cpp DB 01H
__78340504_type_traits DB 01H
__12B7E364_xfacet DB 01H
__4741D85A_xmemory DB 01H
__3EF2B46B_memory DB 01H
__2DD4BB99_utility DB 01H
__ECAC2AF7_xlocale DB 01H
__0B1C41AB_ios DB 01H
__3677C06E_streambuf DB 01H
__2AC06F0D_xiosbase DB 01H
__33925EC6_xstring DB 01H
__FFBCF033_ostream DB 01H
__72700B68_DATE_CHECK@cpp DB 01H
__FCDCC866_stdafx@h DB 01H
msvcjmc	ENDS
_DATA	SEGMENT
?days_in_month@@3PAHA DD 01fH				; days_in_month
	DD	01cH
	DD	01fH
	DD	01eH
	DD	01fH
	DD	01eH
	DD	01fH
	DD	01fH
	DD	01eH
	DD	01fH
	DD	01eH
	DD	01fH
_DATA	ENDS
PUBLIC	?__empty_global_delete@@YAXPAX@Z		; __empty_global_delete
PUBLIC	?__empty_global_delete@@YAXPAXI@Z		; __empty_global_delete
PUBLIC	?length@?$_Narrow_char_traits@DH@std@@SAIQBD@Z	; std::_Narrow_char_traits<char,int>::length
PUBLIC	?eq_int_type@?$_Narrow_char_traits@DH@std@@SA_NABH0@Z ; std::_Narrow_char_traits<char,int>::eq_int_type
PUBLIC	?eof@?$_Narrow_char_traits@DH@std@@SAHXZ	; std::_Narrow_char_traits<char,int>::eof
PUBLIC	?datecheck@@YA_NHHHH@Z				; datecheck
PUBLIC	?birthday_datecheck@@YA_NHHHH@Z			; birthday_datecheck
PUBLIC	??$?6U?$char_traits@D@std@@@std@@YAAAV?$basic_ostream@DU?$char_traits@D@std@@@0@AAV10@PBD@Z ; std::operator<<<std::char_traits<char> >
PUBLIC	??$endl@DU?$char_traits@D@std@@@std@@YAAAV?$basic_ostream@DU?$char_traits@D@std@@@0@AAV10@@Z ; std::endl<char,std::char_traits<char> >
PUBLIC	??0_Sentry_base@?$basic_ostream@DU?$char_traits@D@std@@@std@@QAE@AAV12@@Z ; std::basic_ostream<char,std::char_traits<char> >::_Sentry_base::_Sentry_base
PUBLIC	??1_Sentry_base@?$basic_ostream@DU?$char_traits@D@std@@@std@@QAE@XZ ; std::basic_ostream<char,std::char_traits<char> >::_Sentry_base::~_Sentry_base
PUBLIC	??0sentry@?$basic_ostream@DU?$char_traits@D@std@@@std@@QAE@AAV12@@Z ; std::basic_ostream<char,std::char_traits<char> >::sentry::sentry
PUBLIC	??1sentry@?$basic_ostream@DU?$char_traits@D@std@@@std@@QAE@XZ ; std::basic_ostream<char,std::char_traits<char> >::sentry::~sentry
PUBLIC	??Bsentry@?$basic_ostream@DU?$char_traits@D@std@@@std@@QBE_NXZ ; std::basic_ostream<char,std::char_traits<char> >::sentry::operator bool
PUBLIC	__JustMyCode_Default
PUBLIC	??_C@_0CE@IMCHNOLJ@?B?5?d?$OA?r?s?5?m?e?5?l?n?f?e?r?$PM?5?a?$PL?r?$PM?5?b?b?e?d?e?m?$OA?5?a@ ; `string'
PUBLIC	??_C@_0CE@KCBCHKMK@?D?$OA?r?$OA?5?b?b?e?d?e?m?$OA?5?b?5?m?e?o?p?$OA?b?h?k?$PM?m?n?l?5?t?n?p@ ; `string'
PUBLIC	??_C@_0BI@BFGCFCDH@?S?j?$OA?g?$OA?m?5?m?e?o?p?$OA?b?h?k?$PM?m?$PL?i?5?c?n?d@ ; `string'
PUBLIC	??_C@_0BK@IFNNDDB@?S?j?$OA?g?$OA?m?5?m?e?o?p?$OA?b?h?k?$PM?m?$PL?i?5?l?e?q?$PP?v@ ; `string'
PUBLIC	??_C@_0BJ@GKFBAJHC@?S?j?$OA?g?$OA?m?5?m?e?o?p?$OA?b?h?k?$PM?m?$PL?i?5?d?e?m?$PM@ ; `string'
EXTRN	_strlen:PROC
EXTRN	?uncaught_exception@std@@YA_NXZ:PROC		; std::uncaught_exception
EXTRN	__imp_?good@ios_base@std@@QBE_NXZ:PROC
EXTRN	__imp_?flags@ios_base@std@@QBEHXZ:PROC
EXTRN	__imp_?width@ios_base@std@@QBE_JXZ:PROC
EXTRN	__imp_?width@ios_base@std@@QAE_J_J@Z:PROC
EXTRN	__imp_?sputc@?$basic_streambuf@DU?$char_traits@D@std@@@std@@QAEHD@Z:PROC
EXTRN	__imp_?sputn@?$basic_streambuf@DU?$char_traits@D@std@@@std@@QAE_JPBD_J@Z:PROC
EXTRN	__imp_?setstate@?$basic_ios@DU?$char_traits@D@std@@@std@@QAEXH_N@Z:PROC
EXTRN	__imp_?tie@?$basic_ios@DU?$char_traits@D@std@@@std@@QBEPAV?$basic_ostream@DU?$char_traits@D@std@@@2@XZ:PROC
EXTRN	__imp_?rdbuf@?$basic_ios@DU?$char_traits@D@std@@@std@@QBEPAV?$basic_streambuf@DU?$char_traits@D@std@@@2@XZ:PROC
EXTRN	__imp_?fill@?$basic_ios@DU?$char_traits@D@std@@@std@@QBEDXZ:PROC
EXTRN	__imp_?widen@?$basic_ios@DU?$char_traits@D@std@@@std@@QBEDD@Z:PROC
EXTRN	__imp_?_Osfx@?$basic_ostream@DU?$char_traits@D@std@@@std@@QAEXXZ:PROC
EXTRN	__imp_??6?$basic_ostream@DU?$char_traits@D@std@@@std@@QAEAAV01@P6AAAV01@AAV01@@Z@Z:PROC
EXTRN	__imp_?put@?$basic_ostream@DU?$char_traits@D@std@@@std@@QAEAAV12@D@Z:PROC
EXTRN	__imp_?flush@?$basic_ostream@DU?$char_traits@D@std@@@std@@QAEAAV12@XZ:PROC
EXTRN	?LEAP_YEAR_CHECK@@YA_NH@Z:PROC			; LEAP_YEAR_CHECK
EXTRN	@_RTC_CheckStackVars@8:PROC
EXTRN	@__CheckForDebuggerJustMyCode@4:PROC
EXTRN	@__security_check_cookie@4:PROC
EXTRN	__RTC_CheckEsp:PROC
EXTRN	__RTC_InitBase:PROC
EXTRN	__RTC_Shutdown:PROC
EXTRN	___CxxFrameHandler3:PROC
EXTRN	__imp_?cout@std@@3V?$basic_ostream@DU?$char_traits@D@std@@@1@A:BYTE
EXTRN	___security_cookie:DWORD
;	COMDAT rtc$TMZ
rtc$TMZ	SEGMENT
__RTC_Shutdown.rtc$TMZ DD FLAT:__RTC_Shutdown
rtc$TMZ	ENDS
;	COMDAT rtc$IMZ
rtc$IMZ	SEGMENT
__RTC_InitBase.rtc$IMZ DD FLAT:__RTC_InitBase
rtc$IMZ	ENDS
;	COMDAT ??_C@_0BJ@GKFBAJHC@?S?j?$OA?g?$OA?m?5?m?e?o?p?$OA?b?h?k?$PM?m?$PL?i?5?d?e?m?$PM@
CONST	SEGMENT
??_C@_0BJ@GKFBAJHC@?S?j?$OA?g?$OA?m?5?m?e?o?p?$OA?b?h?k?$PM?m?$PL?i?5?d?e?m?$PM@ DB 0d3H
	DB	0eaH, 0e0H, 0e7H, 0e0H, 0edH, ' ', 0edH, 0e5H, 0efH, 0f0H, 0e0H
	DB	0e2H, 0e8H, 0ebH, 0fcH, 0edH, 0fbH, 0e9H, ' ', 0e4H, 0e5H, 0edH
	DB	0fcH, 00H					; `string'
CONST	ENDS
;	COMDAT ??_C@_0BK@IFNNDDB@?S?j?$OA?g?$OA?m?5?m?e?o?p?$OA?b?h?k?$PM?m?$PL?i?5?l?e?q?$PP?v@
CONST	SEGMENT
??_C@_0BK@IFNNDDB@?S?j?$OA?g?$OA?m?5?m?e?o?p?$OA?b?h?k?$PM?m?$PL?i?5?l?e?q?$PP?v@ DB 0d3H
	DB	0eaH, 0e0H, 0e7H, 0e0H, 0edH, ' ', 0edH, 0e5H, 0efH, 0f0H, 0e0H
	DB	0e2H, 0e8H, 0ebH, 0fcH, 0edH, 0fbH, 0e9H, ' ', 0ecH, 0e5H, 0f1H
	DB	0ffH, 0f6H, 00H				; `string'
CONST	ENDS
;	COMDAT ??_C@_0BI@BFGCFCDH@?S?j?$OA?g?$OA?m?5?m?e?o?p?$OA?b?h?k?$PM?m?$PL?i?5?c?n?d@
CONST	SEGMENT
??_C@_0BI@BFGCFCDH@?S?j?$OA?g?$OA?m?5?m?e?o?p?$OA?b?h?k?$PM?m?$PL?i?5?c?n?d@ DB 0d3H
	DB	0eaH, 0e0H, 0e7H, 0e0H, 0edH, ' ', 0edH, 0e5H, 0efH, 0f0H, 0e0H
	DB	0e2H, 0e8H, 0ebH, 0fcH, 0edH, 0fbH, 0e9H, ' ', 0e3H, 0eeH, 0e4H
	DB	00H						; `string'
CONST	ENDS
;	COMDAT ??_C@_0CE@KCBCHKMK@?D?$OA?r?$OA?5?b?b?e?d?e?m?$OA?5?b?5?m?e?o?p?$OA?b?h?k?$PM?m?n?l?5?t?n?p@
CONST	SEGMENT
??_C@_0CE@KCBCHKMK@?D?$OA?r?$OA?5?b?b?e?d?e?m?$OA?5?b?5?m?e?o?p?$OA?b?h?k?$PM?m?n?l?5?t?n?p@ DB 0c4H
	DB	0e0H, 0f2H, 0e0H, ' ', 0e2H, 0e2H, 0e5H, 0e4H, 0e5H, 0edH, 0e0H
	DB	' ', 0e2H, ' ', 0edH, 0e5H, 0efH, 0f0H, 0e0H, 0e2H, 0e8H, 0ebH
	DB	0fcH, 0edH, 0eeH, 0ecH, ' ', 0f4H, 0eeH, 0f0H, 0ecH, 0e0H, 0f2H
	DB	0e5H, 00H					; `string'
CONST	ENDS
;	COMDAT ??_C@_0CE@IMCHNOLJ@?B?5?d?$OA?r?s?5?m?e?5?l?n?f?e?r?$PM?5?a?$PL?r?$PM?5?b?b?e?d?e?m?$OA?5?a@
CONST	SEGMENT
??_C@_0CE@IMCHNOLJ@?B?5?d?$OA?r?s?5?m?e?5?l?n?f?e?r?$PM?5?a?$PL?r?$PM?5?b?b?e?d?e?m?$OA?5?a@ DB 0c2H
	DB	' ', 0e4H, 0e0H, 0f2H, 0f3H, ' ', 0edH, 0e5H, ' ', 0ecH, 0eeH, 0e6H
	DB	0e5H, 0f2H, 0fcH, ' ', 0e1H, 0fbH, 0f2H, 0fcH, ' ', 0e2H, 0e2H
	DB	0e5H, 0e4H, 0e5H, 0edH, 0e0H, ' ', 0e1H, 0f3H, 0eaH, 0e2H, 0e0H
	DB	00H						; `string'
CONST	ENDS
;	COMDAT voltbl
voltbl	SEGMENT
_volmd	DB	09H
voltbl	ENDS
;	COMDAT xdata$x
xdata$x	SEGMENT
__ehfuncinfo$??1sentry@?$basic_ostream@DU?$char_traits@D@std@@@std@@QAE@XZ DD 019930522H
	DD	00H
	DD	00H
	DD	2 DUP(00H)
	DD	2 DUP(00H)
	DD	00H
	DD	05H
xdata$x	ENDS
;	COMDAT voltbl
voltbl	SEGMENT
_volmd	DB	016H
voltbl	ENDS
;	COMDAT xdata$x
xdata$x	SEGMENT
__unwindtable$??0sentry@?$basic_ostream@DU?$char_traits@D@std@@@std@@QAE@AAV12@@Z DD 0ffffffffH
	DD	FLAT:__unwindfunclet$??0sentry@?$basic_ostream@DU?$char_traits@D@std@@@std@@QAE@AAV12@@Z$0
__ehfuncinfo$??0sentry@?$basic_ostream@DU?$char_traits@D@std@@@std@@QAE@AAV12@@Z DD 019930522H
	DD	01H
	DD	FLAT:__unwindtable$??0sentry@?$basic_ostream@DU?$char_traits@D@std@@@std@@QAE@AAV12@@Z
	DD	2 DUP(00H)
	DD	2 DUP(00H)
	DD	00H
	DD	01H
xdata$x	ENDS
;	COMDAT voltbl
voltbl	SEGMENT
_volmd	DB	09H
voltbl	ENDS
;	COMDAT xdata$x
xdata$x	SEGMENT
__ehfuncinfo$??1_Sentry_base@?$basic_ostream@DU?$char_traits@D@std@@@std@@QAE@XZ DD 019930522H
	DD	00H
	DD	00H
	DD	2 DUP(00H)
	DD	2 DUP(00H)
	DD	00H
	DD	05H
xdata$x	ENDS
;	COMDAT voltbl
voltbl	SEGMENT
_volmd	DB	016H
	DB	023H
voltbl	ENDS
;	COMDAT voltbl
voltbl	SEGMENT
_volmd	DW	034H
	DW	0477H
voltbl	ENDS
;	COMDAT xdata$x
xdata$x	SEGMENT
__catchsym$??$?6U?$char_traits@D@std@@@std@@YAAAV?$basic_ostream@DU?$char_traits@D@std@@@0@AAV10@PBD@Z$3 DD 040H
	DD	00H
	DD	00H
	DD	FLAT:__catch$??$?6U?$char_traits@D@std@@@std@@YAAAV?$basic_ostream@DU?$char_traits@D@std@@@0@AAV10@PBD@Z$0
__tryblocktable$??$?6U?$char_traits@D@std@@@std@@YAAAV?$basic_ostream@DU?$char_traits@D@std@@@0@AAV10@PBD@Z DD 01H
	DD	01H
	DD	02H
	DD	01H
	DD	FLAT:__catchsym$??$?6U?$char_traits@D@std@@@std@@YAAAV?$basic_ostream@DU?$char_traits@D@std@@@0@AAV10@PBD@Z$3
__unwindtable$??$?6U?$char_traits@D@std@@@std@@YAAAV?$basic_ostream@DU?$char_traits@D@std@@@0@AAV10@PBD@Z DD 0ffffffffH
	DD	FLAT:__unwindfunclet$??$?6U?$char_traits@D@std@@@std@@YAAAV?$basic_ostream@DU?$char_traits@D@std@@@0@AAV10@PBD@Z$2
	DD	00H
	DD	00H
	DD	00H
	DD	00H
__ehfuncinfo$??$?6U?$char_traits@D@std@@@std@@YAAAV?$basic_ostream@DU?$char_traits@D@std@@@0@AAV10@PBD@Z DD 019930522H
	DD	03H
	DD	FLAT:__unwindtable$??$?6U?$char_traits@D@std@@@std@@YAAAV?$basic_ostream@DU?$char_traits@D@std@@@0@AAV10@PBD@Z
	DD	01H
	DD	FLAT:__tryblocktable$??$?6U?$char_traits@D@std@@@std@@YAAAV?$basic_ostream@DU?$char_traits@D@std@@@0@AAV10@PBD@Z
	DD	2 DUP(00H)
	DD	00H
	DD	01H
xdata$x	ENDS
; Function compile flags: /Odt
;	COMDAT __JustMyCode_Default
_TEXT	SEGMENT
__JustMyCode_Default PROC				; COMDAT
  00000	55		 push	 ebp
  00001	8b ec		 mov	 ebp, esp
  00003	5d		 pop	 ebp
  00004	c3		 ret	 0
__JustMyCode_Default ENDP
_TEXT	ENDS
; Function compile flags: /Odtp /RTCsu /ZI
; File D:\Soft\Microsoft Visual Studio\VC\Tools\MSVC\14.33.31629\include\ostream
;	COMDAT ??Bsentry@?$basic_ostream@DU?$char_traits@D@std@@@std@@QBE_NXZ
_TEXT	SEGMENT
_this$ = -8						; size = 4
??Bsentry@?$basic_ostream@DU?$char_traits@D@std@@@std@@QBE_NXZ PROC ; std::basic_ostream<char,std::char_traits<char> >::sentry::operator bool, COMDAT
; _this$ = ecx

; 123  :         explicit __CLR_OR_THIS_CALL operator bool() const {

  00000	55		 push	 ebp
  00001	8b ec		 mov	 ebp, esp
  00003	81 ec cc 00 00
	00		 sub	 esp, 204		; 000000ccH
  00009	53		 push	 ebx
  0000a	56		 push	 esi
  0000b	57		 push	 edi
  0000c	51		 push	 ecx
  0000d	8d 7d f4	 lea	 edi, DWORD PTR [ebp-12]
  00010	b9 03 00 00 00	 mov	 ecx, 3
  00015	b8 cc cc cc cc	 mov	 eax, -858993460		; ccccccccH
  0001a	f3 ab		 rep stosd
  0001c	59		 pop	 ecx
  0001d	89 4d f8	 mov	 DWORD PTR _this$[ebp], ecx
  00020	b9 00 00 00 00	 mov	 ecx, OFFSET __FFBCF033_ostream
  00025	e8 00 00 00 00	 call	 @__CheckForDebuggerJustMyCode@4

; 124  :             return _Ok;

  0002a	8b 45 f8	 mov	 eax, DWORD PTR _this$[ebp]
  0002d	8a 40 04	 mov	 al, BYTE PTR [eax+4]

; 125  :         }

  00030	5f		 pop	 edi
  00031	5e		 pop	 esi
  00032	5b		 pop	 ebx
  00033	81 c4 cc 00 00
	00		 add	 esp, 204		; 000000ccH
  00039	3b ec		 cmp	 ebp, esp
  0003b	e8 00 00 00 00	 call	 __RTC_CheckEsp
  00040	8b e5		 mov	 esp, ebp
  00042	5d		 pop	 ebp
  00043	c3		 ret	 0
??Bsentry@?$basic_ostream@DU?$char_traits@D@std@@@std@@QBE_NXZ ENDP ; std::basic_ostream<char,std::char_traits<char> >::sentry::operator bool
_TEXT	ENDS
; Function compile flags: /Odtp /RTCsu /ZI
; File D:\Soft\Microsoft Visual Studio\VC\Tools\MSVC\14.33.31629\include\ostream
;	COMDAT ??1sentry@?$basic_ostream@DU?$char_traits@D@std@@@std@@QAE@XZ
_TEXT	SEGMENT
tv72 = -229						; size = 1
__Zero_uncaught_exceptions$ = -29			; size = 1
_this$ = -20						; size = 4
__$EHRec$ = -12						; size = 12
??1sentry@?$basic_ostream@DU?$char_traits@D@std@@@std@@QAE@XZ PROC ; std::basic_ostream<char,std::char_traits<char> >::sentry::~sentry, COMDAT
; _this$ = ecx

; 108  :         __CLR_OR_THIS_CALL ~sentry() noexcept {

  00000	55		 push	 ebp
  00001	8b ec		 mov	 ebp, esp
  00003	6a ff		 push	 -1
  00005	68 00 00 00 00	 push	 __ehhandler$??1sentry@?$basic_ostream@DU?$char_traits@D@std@@@std@@QAE@XZ
  0000a	64 a1 00 00 00
	00		 mov	 eax, DWORD PTR fs:0
  00010	50		 push	 eax
  00011	81 ec dc 00 00
	00		 sub	 esp, 220		; 000000dcH
  00017	53		 push	 ebx
  00018	56		 push	 esi
  00019	57		 push	 edi
  0001a	51		 push	 ecx
  0001b	8d 7d d8	 lea	 edi, DWORD PTR [ebp-40]
  0001e	b9 07 00 00 00	 mov	 ecx, 7
  00023	b8 cc cc cc cc	 mov	 eax, -858993460		; ccccccccH
  00028	f3 ab		 rep stosd
  0002a	59		 pop	 ecx
  0002b	a1 00 00 00 00	 mov	 eax, DWORD PTR ___security_cookie
  00030	33 c5		 xor	 eax, ebp
  00032	50		 push	 eax
  00033	8d 45 f4	 lea	 eax, DWORD PTR __$EHRec$[ebp]
  00036	64 a3 00 00 00
	00		 mov	 DWORD PTR fs:0, eax
  0003c	89 4d ec	 mov	 DWORD PTR _this$[ebp], ecx
  0003f	b9 00 00 00 00	 mov	 ecx, OFFSET __FFBCF033_ostream
  00044	e8 00 00 00 00	 call	 @__CheckForDebuggerJustMyCode@4

; 109  : #if !_HAS_EXCEPTIONS
; 110  :             const bool _Zero_uncaught_exceptions = true;
; 111  : #elif _HAS_DEPRECATED_UNCAUGHT_EXCEPTION
; 112  :             const bool _Zero_uncaught_exceptions = !_STD uncaught_exception(); // TRANSITION, ArchivedOS-12000909

  00049	e8 00 00 00 00	 call	 ?uncaught_exception@std@@YA_NXZ ; std::uncaught_exception
  0004e	0f b6 c0	 movzx	 eax, al
  00051	85 c0		 test	 eax, eax
  00053	75 09		 jne	 SHORT $LN4@sentry
  00055	c6 85 1b ff ff
	ff 01		 mov	 BYTE PTR tv72[ebp], 1
  0005c	eb 07		 jmp	 SHORT $LN5@sentry
$LN4@sentry:
  0005e	c6 85 1b ff ff
	ff 00		 mov	 BYTE PTR tv72[ebp], 0
$LN5@sentry:
  00065	8a 8d 1b ff ff
	ff		 mov	 cl, BYTE PTR tv72[ebp]
  0006b	88 4d e3	 mov	 BYTE PTR __Zero_uncaught_exceptions$[ebp], cl

; 113  : #else // ^^^ _HAS_DEPRECATED_UNCAUGHT_EXCEPTION / !_HAS_DEPRECATED_UNCAUGHT_EXCEPTION vvv
; 114  :             const bool _Zero_uncaught_exceptions = _STD uncaught_exceptions() == 0;
; 115  : #endif // !_HAS_DEPRECATED_UNCAUGHT_EXCEPTION
; 116  : 
; 117  :             if (_Zero_uncaught_exceptions) {

  0006e	0f b6 45 e3	 movzx	 eax, BYTE PTR __Zero_uncaught_exceptions$[ebp]
  00072	85 c0		 test	 eax, eax
  00074	74 14		 je	 SHORT $LN1@sentry

; 118  :                 this->_Myostr._Osfx();

  00076	8b f4		 mov	 esi, esp
  00078	8b 45 ec	 mov	 eax, DWORD PTR _this$[ebp]
  0007b	8b 08		 mov	 ecx, DWORD PTR [eax]
  0007d	ff 15 00 00 00
	00		 call	 DWORD PTR __imp_?_Osfx@?$basic_ostream@DU?$char_traits@D@std@@@std@@QAEXXZ
  00083	3b f4		 cmp	 esi, esp
  00085	e8 00 00 00 00	 call	 __RTC_CheckEsp
$LN1@sentry:

; 119  :             }
; 120  :         }

  0008a	8b 4d ec	 mov	 ecx, DWORD PTR _this$[ebp]
  0008d	e8 00 00 00 00	 call	 ??1_Sentry_base@?$basic_ostream@DU?$char_traits@D@std@@@std@@QAE@XZ ; std::basic_ostream<char,std::char_traits<char> >::_Sentry_base::~_Sentry_base
  00092	8b 4d f4	 mov	 ecx, DWORD PTR __$EHRec$[ebp]
  00095	64 89 0d 00 00
	00 00		 mov	 DWORD PTR fs:0, ecx
  0009c	59		 pop	 ecx
  0009d	5f		 pop	 edi
  0009e	5e		 pop	 esi
  0009f	5b		 pop	 ebx
  000a0	81 c4 e8 00 00
	00		 add	 esp, 232		; 000000e8H
  000a6	3b ec		 cmp	 ebp, esp
  000a8	e8 00 00 00 00	 call	 __RTC_CheckEsp
  000ad	8b e5		 mov	 esp, ebp
  000af	5d		 pop	 ebp
  000b0	c3		 ret	 0
  000b1	cc		 int	 3
  000b2	cc		 int	 3
  000b3	cc		 int	 3
  000b4	cc		 int	 3
  000b5	cc		 int	 3
_TEXT	ENDS
;	COMDAT text$x
text$x	SEGMENT
__ehhandler$??1sentry@?$basic_ostream@DU?$char_traits@D@std@@@std@@QAE@XZ:
  00000	90		 npad	 1
  00001	90		 npad	 1
  00002	8b 54 24 08	 mov	 edx, DWORD PTR [esp+8]
  00006	8d 42 0c	 lea	 eax, DWORD PTR [edx+12]
  00009	8b 8a 14 ff ff
	ff		 mov	 ecx, DWORD PTR [edx-236]
  0000f	33 c8		 xor	 ecx, eax
  00011	e8 00 00 00 00	 call	 @__security_check_cookie@4
  00016	b8 00 00 00 00	 mov	 eax, OFFSET __ehfuncinfo$??1sentry@?$basic_ostream@DU?$char_traits@D@std@@@std@@QAE@XZ
  0001b	e9 00 00 00 00	 jmp	 ___CxxFrameHandler3
text$x	ENDS
??1sentry@?$basic_ostream@DU?$char_traits@D@std@@@std@@QAE@XZ ENDP ; std::basic_ostream<char,std::char_traits<char> >::sentry::~sentry
; Function compile flags: /Odtp /RTCsu /ZI
; File D:\Soft\Microsoft Visual Studio\VC\Tools\MSVC\14.33.31629\include\ostream
;	COMDAT ??0sentry@?$basic_ostream@DU?$char_traits@D@std@@@std@@QAE@AAV12@@Z
_TEXT	SEGMENT
__Tied$ = -32						; size = 4
_this$ = -20						; size = 4
__$EHRec$ = -12						; size = 12
__Ostr$ = 8						; size = 4
??0sentry@?$basic_ostream@DU?$char_traits@D@std@@@std@@QAE@AAV12@@Z PROC ; std::basic_ostream<char,std::char_traits<char> >::sentry::sentry, COMDAT
; _this$ = ecx

; 91   :         explicit __CLR_OR_THIS_CALL sentry(basic_ostream& _Ostr) : _Sentry_base(_Ostr) {

  00000	55		 push	 ebp
  00001	8b ec		 mov	 ebp, esp
  00003	6a ff		 push	 -1
  00005	68 00 00 00 00	 push	 __ehhandler$??0sentry@?$basic_ostream@DU?$char_traits@D@std@@@std@@QAE@AAV12@@Z
  0000a	64 a1 00 00 00
	00		 mov	 eax, DWORD PTR fs:0
  00010	50		 push	 eax
  00011	81 ec d8 00 00
	00		 sub	 esp, 216		; 000000d8H
  00017	53		 push	 ebx
  00018	56		 push	 esi
  00019	57		 push	 edi
  0001a	51		 push	 ecx
  0001b	8d 7d dc	 lea	 edi, DWORD PTR [ebp-36]
  0001e	b9 06 00 00 00	 mov	 ecx, 6
  00023	b8 cc cc cc cc	 mov	 eax, -858993460		; ccccccccH
  00028	f3 ab		 rep stosd
  0002a	59		 pop	 ecx
  0002b	a1 00 00 00 00	 mov	 eax, DWORD PTR ___security_cookie
  00030	33 c5		 xor	 eax, ebp
  00032	50		 push	 eax
  00033	8d 45 f4	 lea	 eax, DWORD PTR __$EHRec$[ebp]
  00036	64 a3 00 00 00
	00		 mov	 DWORD PTR fs:0, eax
  0003c	89 4d ec	 mov	 DWORD PTR _this$[ebp], ecx
  0003f	b9 00 00 00 00	 mov	 ecx, OFFSET __FFBCF033_ostream
  00044	e8 00 00 00 00	 call	 @__CheckForDebuggerJustMyCode@4
  00049	8b 45 08	 mov	 eax, DWORD PTR __Ostr$[ebp]
  0004c	50		 push	 eax
  0004d	8b 4d ec	 mov	 ecx, DWORD PTR _this$[ebp]
  00050	e8 00 00 00 00	 call	 ??0_Sentry_base@?$basic_ostream@DU?$char_traits@D@std@@@std@@QAE@AAV12@@Z ; std::basic_ostream<char,std::char_traits<char> >::_Sentry_base::_Sentry_base
  00055	c7 45 fc 00 00
	00 00		 mov	 DWORD PTR __$EHRec$[ebp+8], 0

; 92   :             if (!_Ostr.good()) {

  0005c	8b 45 08	 mov	 eax, DWORD PTR __Ostr$[ebp]
  0005f	8b 08		 mov	 ecx, DWORD PTR [eax]
  00061	8b 55 08	 mov	 edx, DWORD PTR __Ostr$[ebp]
  00064	03 51 04	 add	 edx, DWORD PTR [ecx+4]
  00067	8b f4		 mov	 esi, esp
  00069	8b ca		 mov	 ecx, edx
  0006b	ff 15 00 00 00
	00		 call	 DWORD PTR __imp_?good@ios_base@std@@QBE_NXZ
  00071	3b f4		 cmp	 esi, esp
  00073	e8 00 00 00 00	 call	 __RTC_CheckEsp
  00078	0f b6 c0	 movzx	 eax, al
  0007b	85 c0		 test	 eax, eax
  0007d	75 09		 jne	 SHORT $LN2@sentry

; 93   :                 _Ok = false;

  0007f	8b 45 ec	 mov	 eax, DWORD PTR _this$[ebp]
  00082	c6 40 04 00	 mov	 BYTE PTR [eax+4], 0

; 94   :                 return;

  00086	eb 6a		 jmp	 SHORT $LN1@sentry
$LN2@sentry:

; 95   :             }
; 96   : 
; 97   :             const auto _Tied = _Ostr.tie();

  00088	8b 45 08	 mov	 eax, DWORD PTR __Ostr$[ebp]
  0008b	8b 08		 mov	 ecx, DWORD PTR [eax]
  0008d	8b 55 08	 mov	 edx, DWORD PTR __Ostr$[ebp]
  00090	03 51 04	 add	 edx, DWORD PTR [ecx+4]
  00093	8b f4		 mov	 esi, esp
  00095	8b ca		 mov	 ecx, edx
  00097	ff 15 00 00 00
	00		 call	 DWORD PTR __imp_?tie@?$basic_ios@DU?$char_traits@D@std@@@std@@QBEPAV?$basic_ostream@DU?$char_traits@D@std@@@2@XZ
  0009d	3b f4		 cmp	 esi, esp
  0009f	e8 00 00 00 00	 call	 __RTC_CheckEsp
  000a4	89 45 e0	 mov	 DWORD PTR __Tied$[ebp], eax

; 98   :             if (!_Tied || _Tied == &_Ostr) {

  000a7	83 7d e0 00	 cmp	 DWORD PTR __Tied$[ebp], 0
  000ab	74 08		 je	 SHORT $LN4@sentry
  000ad	8b 45 e0	 mov	 eax, DWORD PTR __Tied$[ebp]
  000b0	3b 45 08	 cmp	 eax, DWORD PTR __Ostr$[ebp]
  000b3	75 09		 jne	 SHORT $LN3@sentry
$LN4@sentry:

; 99   :                 _Ok = true;

  000b5	8b 45 ec	 mov	 eax, DWORD PTR _this$[ebp]
  000b8	c6 40 04 01	 mov	 BYTE PTR [eax+4], 1

; 100  :                 return;

  000bc	eb 34		 jmp	 SHORT $LN1@sentry
$LN3@sentry:

; 101  :             }
; 102  : 
; 103  :             _Tied->flush();

  000be	8b f4		 mov	 esi, esp
  000c0	8b 4d e0	 mov	 ecx, DWORD PTR __Tied$[ebp]
  000c3	ff 15 00 00 00
	00		 call	 DWORD PTR __imp_?flush@?$basic_ostream@DU?$char_traits@D@std@@@std@@QAEAAV12@XZ
  000c9	3b f4		 cmp	 esi, esp
  000cb	e8 00 00 00 00	 call	 __RTC_CheckEsp

; 104  :             _Ok = _Ostr.good(); // store test only after flushing tie

  000d0	8b 45 08	 mov	 eax, DWORD PTR __Ostr$[ebp]
  000d3	8b 08		 mov	 ecx, DWORD PTR [eax]
  000d5	8b 55 08	 mov	 edx, DWORD PTR __Ostr$[ebp]
  000d8	03 51 04	 add	 edx, DWORD PTR [ecx+4]
  000db	8b f4		 mov	 esi, esp
  000dd	8b ca		 mov	 ecx, edx
  000df	ff 15 00 00 00
	00		 call	 DWORD PTR __imp_?good@ios_base@std@@QBE_NXZ
  000e5	3b f4		 cmp	 esi, esp
  000e7	e8 00 00 00 00	 call	 __RTC_CheckEsp
  000ec	8b 4d ec	 mov	 ecx, DWORD PTR _this$[ebp]
  000ef	88 41 04	 mov	 BYTE PTR [ecx+4], al
$LN1@sentry:

; 105  :         }

  000f2	c7 45 fc ff ff
	ff ff		 mov	 DWORD PTR __$EHRec$[ebp+8], -1
  000f9	8b 45 ec	 mov	 eax, DWORD PTR _this$[ebp]
  000fc	8b 4d f4	 mov	 ecx, DWORD PTR __$EHRec$[ebp]
  000ff	64 89 0d 00 00
	00 00		 mov	 DWORD PTR fs:0, ecx
  00106	59		 pop	 ecx
  00107	5f		 pop	 edi
  00108	5e		 pop	 esi
  00109	5b		 pop	 ebx
  0010a	81 c4 e4 00 00
	00		 add	 esp, 228		; 000000e4H
  00110	3b ec		 cmp	 ebp, esp
  00112	e8 00 00 00 00	 call	 __RTC_CheckEsp
  00117	8b e5		 mov	 esp, ebp
  00119	5d		 pop	 ebp
  0011a	c2 04 00	 ret	 4
_TEXT	ENDS
;	COMDAT text$x
text$x	SEGMENT
__unwindfunclet$??0sentry@?$basic_ostream@DU?$char_traits@D@std@@@std@@QAE@AAV12@@Z$0:
  00000	8b 4d ec	 mov	 ecx, DWORD PTR _this$[ebp]
  00003	e9 00 00 00 00	 jmp	 ??1_Sentry_base@?$basic_ostream@DU?$char_traits@D@std@@@std@@QAE@XZ ; std::basic_ostream<char,std::char_traits<char> >::_Sentry_base::~_Sentry_base
  00008	cc		 int	 3
  00009	cc		 int	 3
  0000a	cc		 int	 3
  0000b	cc		 int	 3
  0000c	cc		 int	 3
__ehhandler$??0sentry@?$basic_ostream@DU?$char_traits@D@std@@@std@@QAE@AAV12@@Z:
  0000d	90		 npad	 1
  0000e	90		 npad	 1
  0000f	8b 54 24 08	 mov	 edx, DWORD PTR [esp+8]
  00013	8d 42 0c	 lea	 eax, DWORD PTR [edx+12]
  00016	8b 8a 18 ff ff
	ff		 mov	 ecx, DWORD PTR [edx-232]
  0001c	33 c8		 xor	 ecx, eax
  0001e	e8 00 00 00 00	 call	 @__security_check_cookie@4
  00023	b8 00 00 00 00	 mov	 eax, OFFSET __ehfuncinfo$??0sentry@?$basic_ostream@DU?$char_traits@D@std@@@std@@QAE@AAV12@@Z
  00028	e9 00 00 00 00	 jmp	 ___CxxFrameHandler3
text$x	ENDS
??0sentry@?$basic_ostream@DU?$char_traits@D@std@@@std@@QAE@AAV12@@Z ENDP ; std::basic_ostream<char,std::char_traits<char> >::sentry::sentry
; Function compile flags: /Odtp /RTCsu /ZI
; File D:\Soft\Microsoft Visual Studio\VC\Tools\MSVC\14.33.31629\include\ostream
;	COMDAT ??1_Sentry_base@?$basic_ostream@DU?$char_traits@D@std@@@std@@QAE@XZ
_TEXT	SEGMENT
tv72 = -232						; size = 4
__Rdbuf$ = -32						; size = 4
_this$ = -20						; size = 4
__$EHRec$ = -12						; size = 12
??1_Sentry_base@?$basic_ostream@DU?$char_traits@D@std@@@std@@QAE@XZ PROC ; std::basic_ostream<char,std::char_traits<char> >::_Sentry_base::~_Sentry_base, COMDAT
; _this$ = ecx

; 77   :         __CLR_OR_THIS_CALL ~_Sentry_base() noexcept { // destroy after unlocking

  00000	55		 push	 ebp
  00001	8b ec		 mov	 ebp, esp
  00003	6a ff		 push	 -1
  00005	68 00 00 00 00	 push	 __ehhandler$??1_Sentry_base@?$basic_ostream@DU?$char_traits@D@std@@@std@@QAE@XZ
  0000a	64 a1 00 00 00
	00		 mov	 eax, DWORD PTR fs:0
  00010	50		 push	 eax
  00011	81 ec dc 00 00
	00		 sub	 esp, 220		; 000000dcH
  00017	53		 push	 ebx
  00018	56		 push	 esi
  00019	57		 push	 edi
  0001a	51		 push	 ecx
  0001b	8d 7d d8	 lea	 edi, DWORD PTR [ebp-40]
  0001e	b9 07 00 00 00	 mov	 ecx, 7
  00023	b8 cc cc cc cc	 mov	 eax, -858993460		; ccccccccH
  00028	f3 ab		 rep stosd
  0002a	59		 pop	 ecx
  0002b	a1 00 00 00 00	 mov	 eax, DWORD PTR ___security_cookie
  00030	33 c5		 xor	 eax, ebp
  00032	50		 push	 eax
  00033	8d 45 f4	 lea	 eax, DWORD PTR __$EHRec$[ebp]
  00036	64 a3 00 00 00
	00		 mov	 DWORD PTR fs:0, eax
  0003c	89 4d ec	 mov	 DWORD PTR _this$[ebp], ecx
  0003f	b9 00 00 00 00	 mov	 ecx, OFFSET __FFBCF033_ostream
  00044	e8 00 00 00 00	 call	 @__CheckForDebuggerJustMyCode@4

; 78   :             const auto _Rdbuf = _Myostr.rdbuf();

  00049	8b 45 ec	 mov	 eax, DWORD PTR _this$[ebp]
  0004c	8b 08		 mov	 ecx, DWORD PTR [eax]
  0004e	89 8d 18 ff ff
	ff		 mov	 DWORD PTR tv72[ebp], ecx
  00054	8b 95 18 ff ff
	ff		 mov	 edx, DWORD PTR tv72[ebp]
  0005a	8b 02		 mov	 eax, DWORD PTR [edx]
  0005c	8b 8d 18 ff ff
	ff		 mov	 ecx, DWORD PTR tv72[ebp]
  00062	03 48 04	 add	 ecx, DWORD PTR [eax+4]
  00065	8b f4		 mov	 esi, esp
  00067	ff 15 00 00 00
	00		 call	 DWORD PTR __imp_?rdbuf@?$basic_ios@DU?$char_traits@D@std@@@std@@QBEPAV?$basic_streambuf@DU?$char_traits@D@std@@@2@XZ
  0006d	3b f4		 cmp	 esi, esp
  0006f	e8 00 00 00 00	 call	 __RTC_CheckEsp
  00074	89 45 e0	 mov	 DWORD PTR __Rdbuf$[ebp], eax

; 79   :             if (_Rdbuf) {

  00077	83 7d e0 00	 cmp	 DWORD PTR __Rdbuf$[ebp], 0
  0007b	74 16		 je	 SHORT $LN3@Sentry_bas

; 80   :                 _Rdbuf->_Unlock();

  0007d	8b 45 e0	 mov	 eax, DWORD PTR __Rdbuf$[ebp]
  00080	8b 10		 mov	 edx, DWORD PTR [eax]
  00082	8b f4		 mov	 esi, esp
  00084	8b 4d e0	 mov	 ecx, DWORD PTR __Rdbuf$[ebp]
  00087	8b 42 08	 mov	 eax, DWORD PTR [edx+8]
  0008a	ff d0		 call	 eax
  0008c	3b f4		 cmp	 esi, esp
  0008e	e8 00 00 00 00	 call	 __RTC_CheckEsp
$LN3@Sentry_bas:

; 81   :             }
; 82   :         }

  00093	8b 4d f4	 mov	 ecx, DWORD PTR __$EHRec$[ebp]
  00096	64 89 0d 00 00
	00 00		 mov	 DWORD PTR fs:0, ecx
  0009d	59		 pop	 ecx
  0009e	5f		 pop	 edi
  0009f	5e		 pop	 esi
  000a0	5b		 pop	 ebx
  000a1	81 c4 e8 00 00
	00		 add	 esp, 232		; 000000e8H
  000a7	3b ec		 cmp	 ebp, esp
  000a9	e8 00 00 00 00	 call	 __RTC_CheckEsp
  000ae	8b e5		 mov	 esp, ebp
  000b0	5d		 pop	 ebp
  000b1	c3		 ret	 0
  000b2	cc		 int	 3
  000b3	cc		 int	 3
  000b4	cc		 int	 3
  000b5	cc		 int	 3
  000b6	cc		 int	 3
_TEXT	ENDS
;	COMDAT text$x
text$x	SEGMENT
__ehhandler$??1_Sentry_base@?$basic_ostream@DU?$char_traits@D@std@@@std@@QAE@XZ:
  00000	90		 npad	 1
  00001	90		 npad	 1
  00002	8b 54 24 08	 mov	 edx, DWORD PTR [esp+8]
  00006	8d 42 0c	 lea	 eax, DWORD PTR [edx+12]
  00009	8b 8a 14 ff ff
	ff		 mov	 ecx, DWORD PTR [edx-236]
  0000f	33 c8		 xor	 ecx, eax
  00011	e8 00 00 00 00	 call	 @__security_check_cookie@4
  00016	b8 00 00 00 00	 mov	 eax, OFFSET __ehfuncinfo$??1_Sentry_base@?$basic_ostream@DU?$char_traits@D@std@@@std@@QAE@XZ
  0001b	e9 00 00 00 00	 jmp	 ___CxxFrameHandler3
text$x	ENDS
??1_Sentry_base@?$basic_ostream@DU?$char_traits@D@std@@@std@@QAE@XZ ENDP ; std::basic_ostream<char,std::char_traits<char> >::_Sentry_base::~_Sentry_base
; Function compile flags: /Odtp /RTCsu /ZI
; File D:\Soft\Microsoft Visual Studio\VC\Tools\MSVC\14.33.31629\include\ostream
;	COMDAT ??0_Sentry_base@?$basic_ostream@DU?$char_traits@D@std@@@std@@QAE@AAV12@@Z
_TEXT	SEGMENT
tv73 = -220						; size = 4
__Rdbuf$ = -20						; size = 4
_this$ = -8						; size = 4
__Ostr$ = 8						; size = 4
??0_Sentry_base@?$basic_ostream@DU?$char_traits@D@std@@@std@@QAE@AAV12@@Z PROC ; std::basic_ostream<char,std::char_traits<char> >::_Sentry_base::_Sentry_base, COMDAT
; _this$ = ecx

; 70   :         __CLR_OR_THIS_CALL _Sentry_base(basic_ostream& _Ostr) : _Myostr(_Ostr) { // lock the stream buffer, if there

  00000	55		 push	 ebp
  00001	8b ec		 mov	 ebp, esp
  00003	81 ec dc 00 00
	00		 sub	 esp, 220		; 000000dcH
  00009	53		 push	 ebx
  0000a	56		 push	 esi
  0000b	57		 push	 edi
  0000c	51		 push	 ecx
  0000d	8d 7d e4	 lea	 edi, DWORD PTR [ebp-28]
  00010	b9 07 00 00 00	 mov	 ecx, 7
  00015	b8 cc cc cc cc	 mov	 eax, -858993460		; ccccccccH
  0001a	f3 ab		 rep stosd
  0001c	59		 pop	 ecx
  0001d	89 4d f8	 mov	 DWORD PTR _this$[ebp], ecx
  00020	b9 00 00 00 00	 mov	 ecx, OFFSET __FFBCF033_ostream
  00025	e8 00 00 00 00	 call	 @__CheckForDebuggerJustMyCode@4
  0002a	8b 45 f8	 mov	 eax, DWORD PTR _this$[ebp]
  0002d	8b 4d 08	 mov	 ecx, DWORD PTR __Ostr$[ebp]
  00030	89 08		 mov	 DWORD PTR [eax], ecx

; 71   :             const auto _Rdbuf = _Myostr.rdbuf();

  00032	8b 45 f8	 mov	 eax, DWORD PTR _this$[ebp]
  00035	8b 08		 mov	 ecx, DWORD PTR [eax]
  00037	89 8d 24 ff ff
	ff		 mov	 DWORD PTR tv73[ebp], ecx
  0003d	8b 95 24 ff ff
	ff		 mov	 edx, DWORD PTR tv73[ebp]
  00043	8b 02		 mov	 eax, DWORD PTR [edx]
  00045	8b 8d 24 ff ff
	ff		 mov	 ecx, DWORD PTR tv73[ebp]
  0004b	03 48 04	 add	 ecx, DWORD PTR [eax+4]
  0004e	8b f4		 mov	 esi, esp
  00050	ff 15 00 00 00
	00		 call	 DWORD PTR __imp_?rdbuf@?$basic_ios@DU?$char_traits@D@std@@@std@@QBEPAV?$basic_streambuf@DU?$char_traits@D@std@@@2@XZ
  00056	3b f4		 cmp	 esi, esp
  00058	e8 00 00 00 00	 call	 __RTC_CheckEsp
  0005d	89 45 ec	 mov	 DWORD PTR __Rdbuf$[ebp], eax

; 72   :             if (_Rdbuf) {

  00060	83 7d ec 00	 cmp	 DWORD PTR __Rdbuf$[ebp], 0
  00064	74 16		 je	 SHORT $LN1@Sentry_bas

; 73   :                 _Rdbuf->_Lock();

  00066	8b 45 ec	 mov	 eax, DWORD PTR __Rdbuf$[ebp]
  00069	8b 10		 mov	 edx, DWORD PTR [eax]
  0006b	8b f4		 mov	 esi, esp
  0006d	8b 4d ec	 mov	 ecx, DWORD PTR __Rdbuf$[ebp]
  00070	8b 42 04	 mov	 eax, DWORD PTR [edx+4]
  00073	ff d0		 call	 eax
  00075	3b f4		 cmp	 esi, esp
  00077	e8 00 00 00 00	 call	 __RTC_CheckEsp
$LN1@Sentry_bas:

; 74   :             }
; 75   :         }

  0007c	8b 45 f8	 mov	 eax, DWORD PTR _this$[ebp]
  0007f	5f		 pop	 edi
  00080	5e		 pop	 esi
  00081	5b		 pop	 ebx
  00082	81 c4 dc 00 00
	00		 add	 esp, 220		; 000000dcH
  00088	3b ec		 cmp	 ebp, esp
  0008a	e8 00 00 00 00	 call	 __RTC_CheckEsp
  0008f	8b e5		 mov	 esp, ebp
  00091	5d		 pop	 ebp
  00092	c2 04 00	 ret	 4
??0_Sentry_base@?$basic_ostream@DU?$char_traits@D@std@@@std@@QAE@AAV12@@Z ENDP ; std::basic_ostream<char,std::char_traits<char> >::_Sentry_base::_Sentry_base
_TEXT	ENDS
; Function compile flags: /Odtp /RTCsu /ZI
; File D:\Soft\Microsoft Visual Studio\VC\Tools\MSVC\14.33.31629\include\ostream
;	COMDAT ??$endl@DU?$char_traits@D@std@@@std@@YAAAV?$basic_ostream@DU?$char_traits@D@std@@@0@AAV10@@Z
_TEXT	SEGMENT
__Ostr$ = 8						; size = 4
??$endl@DU?$char_traits@D@std@@@std@@YAAAV?$basic_ostream@DU?$char_traits@D@std@@@0@AAV10@@Z PROC ; std::endl<char,std::char_traits<char> >, COMDAT

; 1005 :     basic_ostream<_Elem, _Traits>& _Ostr) { // insert newline and flush stream

  00000	55		 push	 ebp
  00001	8b ec		 mov	 ebp, esp
  00003	81 ec c0 00 00
	00		 sub	 esp, 192		; 000000c0H
  00009	53		 push	 ebx
  0000a	56		 push	 esi
  0000b	57		 push	 edi
  0000c	8b fd		 mov	 edi, ebp
  0000e	33 c9		 xor	 ecx, ecx
  00010	b8 cc cc cc cc	 mov	 eax, -858993460		; ccccccccH
  00015	f3 ab		 rep stosd
  00017	b9 00 00 00 00	 mov	 ecx, OFFSET __FFBCF033_ostream
  0001c	e8 00 00 00 00	 call	 @__CheckForDebuggerJustMyCode@4

; 1006 :     _Ostr.put(_Ostr.widen('\n'));

  00021	8b f4		 mov	 esi, esp
  00023	6a 0a		 push	 10			; 0000000aH
  00025	8b 45 08	 mov	 eax, DWORD PTR __Ostr$[ebp]
  00028	8b 08		 mov	 ecx, DWORD PTR [eax]
  0002a	8b 55 08	 mov	 edx, DWORD PTR __Ostr$[ebp]
  0002d	03 51 04	 add	 edx, DWORD PTR [ecx+4]
  00030	8b ca		 mov	 ecx, edx
  00032	ff 15 00 00 00
	00		 call	 DWORD PTR __imp_?widen@?$basic_ios@DU?$char_traits@D@std@@@std@@QBEDD@Z
  00038	3b f4		 cmp	 esi, esp
  0003a	e8 00 00 00 00	 call	 __RTC_CheckEsp
  0003f	8b f4		 mov	 esi, esp
  00041	0f b6 c0	 movzx	 eax, al
  00044	50		 push	 eax
  00045	8b 4d 08	 mov	 ecx, DWORD PTR __Ostr$[ebp]
  00048	ff 15 00 00 00
	00		 call	 DWORD PTR __imp_?put@?$basic_ostream@DU?$char_traits@D@std@@@std@@QAEAAV12@D@Z
  0004e	3b f4		 cmp	 esi, esp
  00050	e8 00 00 00 00	 call	 __RTC_CheckEsp

; 1007 :     _Ostr.flush();

  00055	8b f4		 mov	 esi, esp
  00057	8b 4d 08	 mov	 ecx, DWORD PTR __Ostr$[ebp]
  0005a	ff 15 00 00 00
	00		 call	 DWORD PTR __imp_?flush@?$basic_ostream@DU?$char_traits@D@std@@@std@@QAEAAV12@XZ
  00060	3b f4		 cmp	 esi, esp
  00062	e8 00 00 00 00	 call	 __RTC_CheckEsp

; 1008 :     return _Ostr;

  00067	8b 45 08	 mov	 eax, DWORD PTR __Ostr$[ebp]

; 1009 : }

  0006a	5f		 pop	 edi
  0006b	5e		 pop	 esi
  0006c	5b		 pop	 ebx
  0006d	81 c4 c0 00 00
	00		 add	 esp, 192		; 000000c0H
  00073	3b ec		 cmp	 ebp, esp
  00075	e8 00 00 00 00	 call	 __RTC_CheckEsp
  0007a	8b e5		 mov	 esp, ebp
  0007c	5d		 pop	 ebp
  0007d	c3		 ret	 0
??$endl@DU?$char_traits@D@std@@@std@@YAAAV?$basic_ostream@DU?$char_traits@D@std@@@0@AAV10@@Z ENDP ; std::endl<char,std::char_traits<char> >
_TEXT	ENDS
; Function compile flags: /Odtp /RTCsu /ZI
; File D:\Soft\Microsoft Visual Studio\VC\Tools\MSVC\14.33.31629\include\ostream
;	COMDAT ??$?6U?$char_traits@D@std@@@std@@YAAAV?$basic_ostream@DU?$char_traits@D@std@@@0@AAV10@PBD@Z
_TEXT	SEGMENT
tv135 = -356						; size = 8
tv343 = -348						; size = 8
tv291 = -344						; size = 4
tv288 = -344						; size = 8
tv286 = -344						; size = 4
tv329 = -340						; size = 8
tv290 = -340						; size = 4
tv285 = -340						; size = 4
tv287 = -336						; size = 4
tv137 = -336						; size = 4
tv289 = -333						; size = 1
tv284 = -333						; size = 1
$T2 = -328						; size = 4
$T3 = -316						; size = 4
$T4 = -304						; size = 4
$T5 = -292						; size = 4
$T6 = -280						; size = 4
__Ok$ = -76						; size = 8
__Pad$ = -60						; size = 8
__Count$ = -44						; size = 8
__State$ = -28						; size = 4
__$ArrayPad$ = -20					; size = 4
__$EHRec$ = -16						; size = 16
__Ostr$ = 8						; size = 4
__Val$ = 12						; size = 4
??$?6U?$char_traits@D@std@@@std@@YAAAV?$basic_ostream@DU?$char_traits@D@std@@@0@AAV10@PBD@Z PROC ; std::operator<<<std::char_traits<char> >, COMDAT

; 761  : basic_ostream<char, _Traits>& operator<<(basic_ostream<char, _Traits>& _Ostr, const char* _Val) {

  00000	55		 push	 ebp
  00001	8b ec		 mov	 ebp, esp
  00003	6a ff		 push	 -1
  00005	68 00 00 00 00	 push	 __ehhandler$??$?6U?$char_traits@D@std@@@std@@YAAAV?$basic_ostream@DU?$char_traits@D@std@@@0@AAV10@PBD@Z
  0000a	64 a1 00 00 00
	00		 mov	 eax, DWORD PTR fs:0
  00010	50		 push	 eax
  00011	51		 push	 ecx
  00012	81 ec 54 01 00
	00		 sub	 esp, 340		; 00000154H
  00018	53		 push	 ebx
  00019	56		 push	 esi
  0001a	57		 push	 edi
  0001b	8d bd 5c ff ff
	ff		 lea	 edi, DWORD PTR [ebp-164]
  00021	b9 25 00 00 00	 mov	 ecx, 37			; 00000025H
  00026	b8 cc cc cc cc	 mov	 eax, -858993460		; ccccccccH
  0002b	f3 ab		 rep stosd
  0002d	a1 00 00 00 00	 mov	 eax, DWORD PTR ___security_cookie
  00032	33 c5		 xor	 eax, ebp
  00034	89 45 ec	 mov	 DWORD PTR __$ArrayPad$[ebp], eax
  00037	50		 push	 eax
  00038	8d 45 f4	 lea	 eax, DWORD PTR __$EHRec$[ebp+4]
  0003b	64 a3 00 00 00
	00		 mov	 DWORD PTR fs:0, eax
  00041	89 65 f0	 mov	 DWORD PTR __$EHRec$[ebp], esp
  00044	b9 00 00 00 00	 mov	 ecx, OFFSET __FFBCF033_ostream
  00049	e8 00 00 00 00	 call	 @__CheckForDebuggerJustMyCode@4

; 762  :     // insert NTBS into char stream
; 763  :     using _Elem = char;
; 764  :     using _Myos = basic_ostream<_Elem, _Traits>;
; 765  : 
; 766  :     ios_base::iostate _State = ios_base::goodbit;

  0004e	c7 45 e4 00 00
	00 00		 mov	 DWORD PTR __State$[ebp], 0

; 767  :     streamsize _Count        = static_cast<streamsize>(_Traits::length(_Val));

  00055	8b 45 0c	 mov	 eax, DWORD PTR __Val$[ebp]
  00058	50		 push	 eax
  00059	e8 00 00 00 00	 call	 ?length@?$_Narrow_char_traits@DH@std@@SAIQBD@Z ; std::_Narrow_char_traits<char,int>::length
  0005e	83 c4 04	 add	 esp, 4
  00061	33 c9		 xor	 ecx, ecx
  00063	89 45 d4	 mov	 DWORD PTR __Count$[ebp], eax
  00066	89 4d d8	 mov	 DWORD PTR __Count$[ebp+4], ecx

; 768  :     streamsize _Pad          = _Ostr.width() <= 0 || _Ostr.width() <= _Count ? 0 : _Ostr.width() - _Count;

  00069	8b 45 08	 mov	 eax, DWORD PTR __Ostr$[ebp]
  0006c	8b 08		 mov	 ecx, DWORD PTR [eax]
  0006e	8b 55 08	 mov	 edx, DWORD PTR __Ostr$[ebp]
  00071	03 51 04	 add	 edx, DWORD PTR [ecx+4]
  00074	8b f4		 mov	 esi, esp
  00076	8b ca		 mov	 ecx, edx
  00078	ff 15 00 00 00
	00		 call	 DWORD PTR __imp_?width@ios_base@std@@QBE_JXZ
  0007e	3b f4		 cmp	 esi, esp
  00080	e8 00 00 00 00	 call	 __RTC_CheckEsp
  00085	89 85 ac fe ff
	ff		 mov	 DWORD PTR tv329[ebp], eax
  0008b	89 95 b0 fe ff
	ff		 mov	 DWORD PTR tv329[ebp+4], edx
  00091	83 bd b0 fe ff
	ff 00		 cmp	 DWORD PTR tv329[ebp+4], 0
  00098	7c 79		 jl	 SHORT $LN17@operator
  0009a	7f 09		 jg	 SHORT $LN24@operator
  0009c	83 bd ac fe ff
	ff 00		 cmp	 DWORD PTR tv329[ebp], 0
  000a3	76 6e		 jbe	 SHORT $LN17@operator
$LN24@operator:
  000a5	8b 45 08	 mov	 eax, DWORD PTR __Ostr$[ebp]
  000a8	8b 08		 mov	 ecx, DWORD PTR [eax]
  000aa	8b 55 08	 mov	 edx, DWORD PTR __Ostr$[ebp]
  000ad	03 51 04	 add	 edx, DWORD PTR [ecx+4]
  000b0	8b f4		 mov	 esi, esp
  000b2	8b ca		 mov	 ecx, edx
  000b4	ff 15 00 00 00
	00		 call	 DWORD PTR __imp_?width@ios_base@std@@QBE_JXZ
  000ba	3b f4		 cmp	 esi, esp
  000bc	e8 00 00 00 00	 call	 __RTC_CheckEsp
  000c1	89 85 a4 fe ff
	ff		 mov	 DWORD PTR tv343[ebp], eax
  000c7	89 95 a8 fe ff
	ff		 mov	 DWORD PTR tv343[ebp+4], edx
  000cd	8b 85 a8 fe ff
	ff		 mov	 eax, DWORD PTR tv343[ebp+4]
  000d3	3b 45 d8	 cmp	 eax, DWORD PTR __Count$[ebp+4]
  000d6	7c 3b		 jl	 SHORT $LN17@operator
  000d8	7f 0b		 jg	 SHORT $LN25@operator
  000da	8b 8d a4 fe ff
	ff		 mov	 ecx, DWORD PTR tv343[ebp]
  000e0	3b 4d d4	 cmp	 ecx, DWORD PTR __Count$[ebp]
  000e3	76 2e		 jbe	 SHORT $LN17@operator
$LN25@operator:
  000e5	8b 55 08	 mov	 edx, DWORD PTR __Ostr$[ebp]
  000e8	8b 02		 mov	 eax, DWORD PTR [edx]
  000ea	8b 4d 08	 mov	 ecx, DWORD PTR __Ostr$[ebp]
  000ed	03 48 04	 add	 ecx, DWORD PTR [eax+4]
  000f0	8b f4		 mov	 esi, esp
  000f2	ff 15 00 00 00
	00		 call	 DWORD PTR __imp_?width@ios_base@std@@QBE_JXZ
  000f8	3b f4		 cmp	 esi, esp
  000fa	e8 00 00 00 00	 call	 __RTC_CheckEsp
  000ff	2b 45 d4	 sub	 eax, DWORD PTR __Count$[ebp]
  00102	1b 55 d8	 sbb	 edx, DWORD PTR __Count$[ebp+4]
  00105	89 85 9c fe ff
	ff		 mov	 DWORD PTR tv135[ebp], eax
  0010b	89 95 a0 fe ff
	ff		 mov	 DWORD PTR tv135[ebp+4], edx
  00111	eb 0b		 jmp	 SHORT $LN18@operator
$LN17@operator:
  00113	0f 57 c0	 xorps	 xmm0, xmm0
  00116	66 0f 13 85 9c
	fe ff ff	 movlpd	 QWORD PTR tv135[ebp], xmm0
$LN18@operator:
  0011e	8b 8d 9c fe ff
	ff		 mov	 ecx, DWORD PTR tv135[ebp]
  00124	8b 95 a0 fe ff
	ff		 mov	 edx, DWORD PTR tv135[ebp+4]
  0012a	89 4d c4	 mov	 DWORD PTR __Pad$[ebp], ecx
  0012d	89 55 c8	 mov	 DWORD PTR __Pad$[ebp+4], edx

; 769  :     const typename _Myos::sentry _Ok(_Ostr);

  00130	8b 45 08	 mov	 eax, DWORD PTR __Ostr$[ebp]
  00133	50		 push	 eax
  00134	8d 4d b4	 lea	 ecx, DWORD PTR __Ok$[ebp]
  00137	e8 00 00 00 00	 call	 ??0sentry@?$basic_ostream@DU?$char_traits@D@std@@@std@@QAE@AAV12@@Z ; std::basic_ostream<char,std::char_traits<char> >::sentry::sentry
  0013c	c7 45 fc 00 00
	00 00		 mov	 DWORD PTR __$EHRec$[ebp+12], 0

; 770  : 
; 771  :     if (!_Ok) {

  00143	8d 4d b4	 lea	 ecx, DWORD PTR __Ok$[ebp]
  00146	e8 00 00 00 00	 call	 ??Bsentry@?$basic_ostream@DU?$char_traits@D@std@@@std@@QBE_NXZ ; std::basic_ostream<char,std::char_traits<char> >::sentry::operator bool
  0014b	0f b6 c0	 movzx	 eax, al
  0014e	85 c0		 test	 eax, eax
  00150	75 0e		 jne	 SHORT $LN8@operator

; 772  :         _State |= ios_base::badbit;

  00152	8b 45 e4	 mov	 eax, DWORD PTR __State$[ebp]
  00155	83 c8 04	 or	 eax, 4
  00158	89 45 e4	 mov	 DWORD PTR __State$[ebp], eax

; 773  :     } else { // state okay, insert

  0015b	e9 ba 02 00 00	 jmp	 $LN9@operator
$LN8@operator:

; 774  :         _TRY_IO_BEGIN

  00160	c6 45 fc 01	 mov	 BYTE PTR __$EHRec$[ebp+12], 1

; 775  :         if ((_Ostr.flags() & ios_base::adjustfield) != ios_base::left) {

  00164	8b 45 08	 mov	 eax, DWORD PTR __Ostr$[ebp]
  00167	8b 08		 mov	 ecx, DWORD PTR [eax]
  00169	8b 55 08	 mov	 edx, DWORD PTR __Ostr$[ebp]
  0016c	03 51 04	 add	 edx, DWORD PTR [ecx+4]
  0016f	8b f4		 mov	 esi, esp
  00171	8b ca		 mov	 ecx, edx
  00173	ff 15 00 00 00
	00		 call	 DWORD PTR __imp_?flags@ios_base@std@@QBEHXZ
  00179	3b f4		 cmp	 esi, esp
  0017b	e8 00 00 00 00	 call	 __RTC_CheckEsp
  00180	89 85 b0 fe ff
	ff		 mov	 DWORD PTR tv137[ebp], eax
  00186	8b 85 b0 fe ff
	ff		 mov	 eax, DWORD PTR tv137[ebp]
  0018c	25 c0 01 00 00	 and	 eax, 448		; 000001c0H
  00191	83 f8 40	 cmp	 eax, 64			; 00000040H
  00194	0f 84 d5 00 00
	00		 je	 $LN11@operator

; 776  :             for (; 0 < _Pad; --_Pad) { // pad on left

  0019a	eb 12		 jmp	 SHORT $LN4@operator
$LN2@operator:
  0019c	8b 45 c4	 mov	 eax, DWORD PTR __Pad$[ebp]
  0019f	83 e8 01	 sub	 eax, 1
  001a2	8b 4d c8	 mov	 ecx, DWORD PTR __Pad$[ebp+4]
  001a5	83 d9 00	 sbb	 ecx, 0
  001a8	89 45 c4	 mov	 DWORD PTR __Pad$[ebp], eax
  001ab	89 4d c8	 mov	 DWORD PTR __Pad$[ebp+4], ecx
$LN4@operator:
  001ae	83 7d c8 00	 cmp	 DWORD PTR __Pad$[ebp+4], 0
  001b2	0f 8c b7 00 00
	00		 jl	 $LN11@operator
  001b8	7f 0a		 jg	 SHORT $LN26@operator
  001ba	83 7d c4 00	 cmp	 DWORD PTR __Pad$[ebp], 0
  001be	0f 86 ab 00 00
	00		 jbe	 $LN11@operator
$LN26@operator:

; 777  :                 if (_Traits::eq_int_type(_Traits::eof(), _Ostr.rdbuf()->sputc(_Ostr.fill()))) {

  001c4	8b 45 08	 mov	 eax, DWORD PTR __Ostr$[ebp]
  001c7	8b 08		 mov	 ecx, DWORD PTR [eax]
  001c9	8b 55 08	 mov	 edx, DWORD PTR __Ostr$[ebp]
  001cc	03 51 04	 add	 edx, DWORD PTR [ecx+4]
  001cf	8b f4		 mov	 esi, esp
  001d1	8b ca		 mov	 ecx, edx
  001d3	ff 15 00 00 00
	00		 call	 DWORD PTR __imp_?fill@?$basic_ios@DU?$char_traits@D@std@@@std@@QBEDXZ
  001d9	3b f4		 cmp	 esi, esp
  001db	e8 00 00 00 00	 call	 __RTC_CheckEsp
  001e0	88 85 b3 fe ff
	ff		 mov	 BYTE PTR tv284[ebp], al
  001e6	8b 45 08	 mov	 eax, DWORD PTR __Ostr$[ebp]
  001e9	8b 08		 mov	 ecx, DWORD PTR [eax]
  001eb	8b 55 08	 mov	 edx, DWORD PTR __Ostr$[ebp]
  001ee	03 51 04	 add	 edx, DWORD PTR [ecx+4]
  001f1	8b f4		 mov	 esi, esp
  001f3	8b ca		 mov	 ecx, edx
  001f5	ff 15 00 00 00
	00		 call	 DWORD PTR __imp_?rdbuf@?$basic_ios@DU?$char_traits@D@std@@@std@@QBEPAV?$basic_streambuf@DU?$char_traits@D@std@@@2@XZ
  001fb	3b f4		 cmp	 esi, esp
  001fd	e8 00 00 00 00	 call	 __RTC_CheckEsp
  00202	89 85 ac fe ff
	ff		 mov	 DWORD PTR tv285[ebp], eax
  00208	8b f4		 mov	 esi, esp
  0020a	0f b6 85 b3 fe
	ff ff		 movzx	 eax, BYTE PTR tv284[ebp]
  00211	50		 push	 eax
  00212	8b 8d ac fe ff
	ff		 mov	 ecx, DWORD PTR tv285[ebp]
  00218	ff 15 00 00 00
	00		 call	 DWORD PTR __imp_?sputc@?$basic_streambuf@DU?$char_traits@D@std@@@std@@QAEHD@Z
  0021e	3b f4		 cmp	 esi, esp
  00220	e8 00 00 00 00	 call	 __RTC_CheckEsp
  00225	89 85 a8 fe ff
	ff		 mov	 DWORD PTR tv286[ebp], eax
  0022b	8b 8d a8 fe ff
	ff		 mov	 ecx, DWORD PTR tv286[ebp]
  00231	89 8d e8 fe ff
	ff		 mov	 DWORD PTR $T6[ebp], ecx
  00237	e8 00 00 00 00	 call	 ?eof@?$_Narrow_char_traits@DH@std@@SAHXZ ; std::_Narrow_char_traits<char,int>::eof
  0023c	89 85 dc fe ff
	ff		 mov	 DWORD PTR $T5[ebp], eax
  00242	8d 95 e8 fe ff
	ff		 lea	 edx, DWORD PTR $T6[ebp]
  00248	52		 push	 edx
  00249	8d 85 dc fe ff
	ff		 lea	 eax, DWORD PTR $T5[ebp]
  0024f	50		 push	 eax
  00250	e8 00 00 00 00	 call	 ?eq_int_type@?$_Narrow_char_traits@DH@std@@SA_NABH0@Z ; std::_Narrow_char_traits<char,int>::eq_int_type
  00255	83 c4 08	 add	 esp, 8
  00258	0f b6 c8	 movzx	 ecx, al
  0025b	85 c9		 test	 ecx, ecx
  0025d	74 0b		 je	 SHORT $LN12@operator

; 778  :                     _State |= ios_base::badbit; // insertion failed, quit

  0025f	8b 45 e4	 mov	 eax, DWORD PTR __State$[ebp]
  00262	83 c8 04	 or	 eax, 4
  00265	89 45 e4	 mov	 DWORD PTR __State$[ebp], eax

; 779  :                     break;

  00268	eb 05		 jmp	 SHORT $LN11@operator
$LN12@operator:

; 780  :                 }
; 781  :             }

  0026a	e9 2d ff ff ff	 jmp	 $LN2@operator
$LN11@operator:

; 782  :         }
; 783  : 
; 784  :         if (_State == ios_base::goodbit && _Ostr.rdbuf()->sputn(_Val, _Count) != _Count) {

  0026f	83 7d e4 00	 cmp	 DWORD PTR __State$[ebp], 0
  00273	75 6e		 jne	 SHORT $LN13@operator
  00275	8b 45 08	 mov	 eax, DWORD PTR __Ostr$[ebp]
  00278	8b 08		 mov	 ecx, DWORD PTR [eax]
  0027a	8b 55 08	 mov	 edx, DWORD PTR __Ostr$[ebp]
  0027d	03 51 04	 add	 edx, DWORD PTR [ecx+4]
  00280	8b f4		 mov	 esi, esp
  00282	8b ca		 mov	 ecx, edx
  00284	ff 15 00 00 00
	00		 call	 DWORD PTR __imp_?rdbuf@?$basic_ios@DU?$char_traits@D@std@@@std@@QBEPAV?$basic_streambuf@DU?$char_traits@D@std@@@2@XZ
  0028a	3b f4		 cmp	 esi, esp
  0028c	e8 00 00 00 00	 call	 __RTC_CheckEsp
  00291	89 85 b0 fe ff
	ff		 mov	 DWORD PTR tv287[ebp], eax
  00297	8b f4		 mov	 esi, esp
  00299	8b 45 d8	 mov	 eax, DWORD PTR __Count$[ebp+4]
  0029c	50		 push	 eax
  0029d	8b 4d d4	 mov	 ecx, DWORD PTR __Count$[ebp]
  002a0	51		 push	 ecx
  002a1	8b 55 0c	 mov	 edx, DWORD PTR __Val$[ebp]
  002a4	52		 push	 edx
  002a5	8b 8d b0 fe ff
	ff		 mov	 ecx, DWORD PTR tv287[ebp]
  002ab	ff 15 00 00 00
	00		 call	 DWORD PTR __imp_?sputn@?$basic_streambuf@DU?$char_traits@D@std@@@std@@QAE_JPBD_J@Z
  002b1	3b f4		 cmp	 esi, esp
  002b3	e8 00 00 00 00	 call	 __RTC_CheckEsp
  002b8	89 85 a8 fe ff
	ff		 mov	 DWORD PTR tv288[ebp], eax
  002be	89 95 ac fe ff
	ff		 mov	 DWORD PTR tv288[ebp+4], edx
  002c4	8b 85 a8 fe ff
	ff		 mov	 eax, DWORD PTR tv288[ebp]
  002ca	3b 45 d4	 cmp	 eax, DWORD PTR __Count$[ebp]
  002cd	75 0b		 jne	 SHORT $LN27@operator
  002cf	8b 8d ac fe ff
	ff		 mov	 ecx, DWORD PTR tv288[ebp+4]
  002d5	3b 4d d8	 cmp	 ecx, DWORD PTR __Count$[ebp+4]
  002d8	74 09		 je	 SHORT $LN13@operator
$LN27@operator:

; 785  :             _State |= ios_base::badbit;

  002da	8b 45 e4	 mov	 eax, DWORD PTR __State$[ebp]
  002dd	83 c8 04	 or	 eax, 4
  002e0	89 45 e4	 mov	 DWORD PTR __State$[ebp], eax
$LN13@operator:

; 786  :         }
; 787  : 
; 788  :         if (_State == ios_base::goodbit) {

  002e3	83 7d e4 00	 cmp	 DWORD PTR __State$[ebp], 0
  002e7	0f 85 d5 00 00
	00		 jne	 $LN14@operator

; 789  :             for (; 0 < _Pad; --_Pad) { // pad on right

  002ed	eb 12		 jmp	 SHORT $LN7@operator
$LN5@operator:
  002ef	8b 45 c4	 mov	 eax, DWORD PTR __Pad$[ebp]
  002f2	83 e8 01	 sub	 eax, 1
  002f5	8b 4d c8	 mov	 ecx, DWORD PTR __Pad$[ebp+4]
  002f8	83 d9 00	 sbb	 ecx, 0
  002fb	89 45 c4	 mov	 DWORD PTR __Pad$[ebp], eax
  002fe	89 4d c8	 mov	 DWORD PTR __Pad$[ebp+4], ecx
$LN7@operator:
  00301	83 7d c8 00	 cmp	 DWORD PTR __Pad$[ebp+4], 0
  00305	0f 8c b7 00 00
	00		 jl	 $LN14@operator
  0030b	7f 0a		 jg	 SHORT $LN28@operator
  0030d	83 7d c4 00	 cmp	 DWORD PTR __Pad$[ebp], 0
  00311	0f 86 ab 00 00
	00		 jbe	 $LN14@operator
$LN28@operator:

; 790  :                 if (_Traits::eq_int_type(_Traits::eof(), _Ostr.rdbuf()->sputc(_Ostr.fill()))) {

  00317	8b 45 08	 mov	 eax, DWORD PTR __Ostr$[ebp]
  0031a	8b 08		 mov	 ecx, DWORD PTR [eax]
  0031c	8b 55 08	 mov	 edx, DWORD PTR __Ostr$[ebp]
  0031f	03 51 04	 add	 edx, DWORD PTR [ecx+4]
  00322	8b f4		 mov	 esi, esp
  00324	8b ca		 mov	 ecx, edx
  00326	ff 15 00 00 00
	00		 call	 DWORD PTR __imp_?fill@?$basic_ios@DU?$char_traits@D@std@@@std@@QBEDXZ
  0032c	3b f4		 cmp	 esi, esp
  0032e	e8 00 00 00 00	 call	 __RTC_CheckEsp
  00333	88 85 b3 fe ff
	ff		 mov	 BYTE PTR tv289[ebp], al
  00339	8b 45 08	 mov	 eax, DWORD PTR __Ostr$[ebp]
  0033c	8b 08		 mov	 ecx, DWORD PTR [eax]
  0033e	8b 55 08	 mov	 edx, DWORD PTR __Ostr$[ebp]
  00341	03 51 04	 add	 edx, DWORD PTR [ecx+4]
  00344	8b f4		 mov	 esi, esp
  00346	8b ca		 mov	 ecx, edx
  00348	ff 15 00 00 00
	00		 call	 DWORD PTR __imp_?rdbuf@?$basic_ios@DU?$char_traits@D@std@@@std@@QBEPAV?$basic_streambuf@DU?$char_traits@D@std@@@2@XZ
  0034e	3b f4		 cmp	 esi, esp
  00350	e8 00 00 00 00	 call	 __RTC_CheckEsp
  00355	89 85 ac fe ff
	ff		 mov	 DWORD PTR tv290[ebp], eax
  0035b	8b f4		 mov	 esi, esp
  0035d	0f b6 85 b3 fe
	ff ff		 movzx	 eax, BYTE PTR tv289[ebp]
  00364	50		 push	 eax
  00365	8b 8d ac fe ff
	ff		 mov	 ecx, DWORD PTR tv290[ebp]
  0036b	ff 15 00 00 00
	00		 call	 DWORD PTR __imp_?sputc@?$basic_streambuf@DU?$char_traits@D@std@@@std@@QAEHD@Z
  00371	3b f4		 cmp	 esi, esp
  00373	e8 00 00 00 00	 call	 __RTC_CheckEsp
  00378	89 85 a8 fe ff
	ff		 mov	 DWORD PTR tv291[ebp], eax
  0037e	8b 8d a8 fe ff
	ff		 mov	 ecx, DWORD PTR tv291[ebp]
  00384	89 8d d0 fe ff
	ff		 mov	 DWORD PTR $T4[ebp], ecx
  0038a	e8 00 00 00 00	 call	 ?eof@?$_Narrow_char_traits@DH@std@@SAHXZ ; std::_Narrow_char_traits<char,int>::eof
  0038f	89 85 c4 fe ff
	ff		 mov	 DWORD PTR $T3[ebp], eax
  00395	8d 95 d0 fe ff
	ff		 lea	 edx, DWORD PTR $T4[ebp]
  0039b	52		 push	 edx
  0039c	8d 85 c4 fe ff
	ff		 lea	 eax, DWORD PTR $T3[ebp]
  003a2	50		 push	 eax
  003a3	e8 00 00 00 00	 call	 ?eq_int_type@?$_Narrow_char_traits@DH@std@@SA_NABH0@Z ; std::_Narrow_char_traits<char,int>::eq_int_type
  003a8	83 c4 08	 add	 esp, 8
  003ab	0f b6 c8	 movzx	 ecx, al
  003ae	85 c9		 test	 ecx, ecx
  003b0	74 0b		 je	 SHORT $LN15@operator

; 791  :                     _State |= ios_base::badbit; // insertion failed, quit

  003b2	8b 45 e4	 mov	 eax, DWORD PTR __State$[ebp]
  003b5	83 c8 04	 or	 eax, 4
  003b8	89 45 e4	 mov	 DWORD PTR __State$[ebp], eax

; 792  :                     break;

  003bb	eb 05		 jmp	 SHORT $LN14@operator
$LN15@operator:

; 793  :                 }
; 794  :             }

  003bd	e9 2d ff ff ff	 jmp	 $LN5@operator
$LN14@operator:

; 795  :         }
; 796  : 
; 797  :         _Ostr.width(0);

  003c2	8b f4		 mov	 esi, esp
  003c4	6a 00		 push	 0
  003c6	6a 00		 push	 0
  003c8	8b 45 08	 mov	 eax, DWORD PTR __Ostr$[ebp]
  003cb	8b 08		 mov	 ecx, DWORD PTR [eax]
  003cd	8b 55 08	 mov	 edx, DWORD PTR __Ostr$[ebp]
  003d0	03 51 04	 add	 edx, DWORD PTR [ecx+4]
  003d3	8b ca		 mov	 ecx, edx
  003d5	ff 15 00 00 00
	00		 call	 DWORD PTR __imp_?width@ios_base@std@@QAE_J_J@Z
  003db	3b f4		 cmp	 esi, esp
  003dd	e8 00 00 00 00	 call	 __RTC_CheckEsp
  003e2	eb 26		 jmp	 SHORT $LN19@operator
__catch$??$?6U?$char_traits@D@std@@@std@@YAAAV?$basic_ostream@DU?$char_traits@D@std@@@0@AAV10@PBD@Z$0:

; 798  :         _CATCH_IO_(ios_base, _Ostr)

  003e4	8b f4		 mov	 esi, esp
  003e6	6a 01		 push	 1
  003e8	6a 04		 push	 4
  003ea	8b 45 08	 mov	 eax, DWORD PTR __Ostr$[ebp]
  003ed	8b 08		 mov	 ecx, DWORD PTR [eax]
  003ef	8b 55 08	 mov	 edx, DWORD PTR __Ostr$[ebp]
  003f2	03 51 04	 add	 edx, DWORD PTR [ecx+4]
  003f5	8b ca		 mov	 ecx, edx
  003f7	ff 15 00 00 00
	00		 call	 DWORD PTR __imp_?setstate@?$basic_ios@DU?$char_traits@D@std@@@std@@QAEXH_N@Z
  003fd	3b f4		 cmp	 esi, esp
  003ff	e8 00 00 00 00	 call	 __RTC_CheckEsp
  00404	b8 00 00 00 00	 mov	 eax, $LN23@operator
  00409	c3		 ret	 0
$LN19@operator:
  0040a	c7 45 fc 00 00
	00 00		 mov	 DWORD PTR __$EHRec$[ebp+12], 0
  00411	eb 07		 jmp	 SHORT $LN9@operator
$LN23@operator:
  00413	c7 45 fc 00 00
	00 00		 mov	 DWORD PTR __$EHRec$[ebp+12], 0
$LN9@operator:

; 799  :     }
; 800  : 
; 801  :     _Ostr.setstate(_State);

  0041a	8b f4		 mov	 esi, esp
  0041c	6a 00		 push	 0
  0041e	8b 45 e4	 mov	 eax, DWORD PTR __State$[ebp]
  00421	50		 push	 eax
  00422	8b 4d 08	 mov	 ecx, DWORD PTR __Ostr$[ebp]
  00425	8b 11		 mov	 edx, DWORD PTR [ecx]
  00427	8b 4d 08	 mov	 ecx, DWORD PTR __Ostr$[ebp]
  0042a	03 4a 04	 add	 ecx, DWORD PTR [edx+4]
  0042d	ff 15 00 00 00
	00		 call	 DWORD PTR __imp_?setstate@?$basic_ios@DU?$char_traits@D@std@@@std@@QAEXH_N@Z
  00433	3b f4		 cmp	 esi, esp
  00435	e8 00 00 00 00	 call	 __RTC_CheckEsp

; 802  :     return _Ostr;

  0043a	8b 45 08	 mov	 eax, DWORD PTR __Ostr$[ebp]
  0043d	89 85 b8 fe ff
	ff		 mov	 DWORD PTR $T2[ebp], eax
  00443	c7 45 fc ff ff
	ff ff		 mov	 DWORD PTR __$EHRec$[ebp+12], -1
  0044a	8d 4d b4	 lea	 ecx, DWORD PTR __Ok$[ebp]
  0044d	e8 00 00 00 00	 call	 ??1sentry@?$basic_ostream@DU?$char_traits@D@std@@@std@@QAE@XZ ; std::basic_ostream<char,std::char_traits<char> >::sentry::~sentry
  00452	8b 85 b8 fe ff
	ff		 mov	 eax, DWORD PTR $T2[ebp]

; 803  : }

  00458	52		 push	 edx
  00459	8b cd		 mov	 ecx, ebp
  0045b	50		 push	 eax
  0045c	8d 15 00 00 00
	00		 lea	 edx, DWORD PTR $LN32@operator
  00462	e8 00 00 00 00	 call	 @_RTC_CheckStackVars@8
  00467	58		 pop	 eax
  00468	5a		 pop	 edx
  00469	8b 4d f4	 mov	 ecx, DWORD PTR __$EHRec$[ebp+4]
  0046c	64 89 0d 00 00
	00 00		 mov	 DWORD PTR fs:0, ecx
  00473	59		 pop	 ecx
  00474	5f		 pop	 edi
  00475	5e		 pop	 esi
  00476	5b		 pop	 ebx
  00477	8b 4d ec	 mov	 ecx, DWORD PTR __$ArrayPad$[ebp]
  0047a	33 cd		 xor	 ecx, ebp
  0047c	e8 00 00 00 00	 call	 @__security_check_cookie@4
  00481	81 c4 64 01 00
	00		 add	 esp, 356		; 00000164H
  00487	3b ec		 cmp	 ebp, esp
  00489	e8 00 00 00 00	 call	 __RTC_CheckEsp
  0048e	8b e5		 mov	 esp, ebp
  00490	5d		 pop	 ebp
  00491	c3		 ret	 0
  00492	66 90		 npad	 2
$LN32@operator:
  00494	01 00 00 00	 DD	 1
  00498	00 00 00 00	 DD	 $LN31@operator
$LN31@operator:
  0049c	b4 ff ff ff	 DD	 -76			; ffffffb4H
  004a0	08 00 00 00	 DD	 8
  004a4	00 00 00 00	 DD	 $LN29@operator
$LN29@operator:
  004a8	5f		 DB	 95			; 0000005fH
  004a9	4f		 DB	 79			; 0000004fH
  004aa	6b		 DB	 107			; 0000006bH
  004ab	00		 DB	 0
_TEXT	ENDS
;	COMDAT text$x
text$x	SEGMENT
__unwindfunclet$??$?6U?$char_traits@D@std@@@std@@YAAAV?$basic_ostream@DU?$char_traits@D@std@@@0@AAV10@PBD@Z$2:
  00000	8d 4d b4	 lea	 ecx, DWORD PTR __Ok$[ebp]
  00003	e9 00 00 00 00	 jmp	 ??1sentry@?$basic_ostream@DU?$char_traits@D@std@@@std@@QAE@XZ ; std::basic_ostream<char,std::char_traits<char> >::sentry::~sentry
  00008	cc		 int	 3
  00009	cc		 int	 3
  0000a	cc		 int	 3
  0000b	cc		 int	 3
  0000c	cc		 int	 3
__ehhandler$??$?6U?$char_traits@D@std@@@std@@YAAAV?$basic_ostream@DU?$char_traits@D@std@@@0@AAV10@PBD@Z:
  0000d	90		 npad	 1
  0000e	90		 npad	 1
  0000f	8b 54 24 08	 mov	 edx, DWORD PTR [esp+8]
  00013	8d 42 0c	 lea	 eax, DWORD PTR [edx+12]
  00016	8b 8a 98 fe ff
	ff		 mov	 ecx, DWORD PTR [edx-360]
  0001c	33 c8		 xor	 ecx, eax
  0001e	e8 00 00 00 00	 call	 @__security_check_cookie@4
  00023	8b 4a f8	 mov	 ecx, DWORD PTR [edx-8]
  00026	33 c8		 xor	 ecx, eax
  00028	e8 00 00 00 00	 call	 @__security_check_cookie@4
  0002d	b8 00 00 00 00	 mov	 eax, OFFSET __ehfuncinfo$??$?6U?$char_traits@D@std@@@std@@YAAAV?$basic_ostream@DU?$char_traits@D@std@@@0@AAV10@PBD@Z
  00032	e9 00 00 00 00	 jmp	 ___CxxFrameHandler3
text$x	ENDS
??$?6U?$char_traits@D@std@@@std@@YAAAV?$basic_ostream@DU?$char_traits@D@std@@@0@AAV10@PBD@Z ENDP ; std::operator<<<std::char_traits<char> >
; Function compile flags: /Odtp /RTCsu /ZI
; File D:\BSTU\2 sem\KPO\Labs\1 lab\lab1\first task\DATE_CHECK.cpp
;	COMDAT ?birthday_datecheck@@YA_NHHHH@Z
_TEXT	SEGMENT
_check_d$ = -17						; size = 1
_check$ = -5						; size = 1
_day$ = 8						; size = 4
_month$ = 12						; size = 4
_year$ = 16						; size = 4
_date$ = 20						; size = 4
?birthday_datecheck@@YA_NHHHH@Z PROC			; birthday_datecheck, COMDAT

; 19   : bool birthday_datecheck(int day, int month, int year, int date) {

  00000	55		 push	 ebp
  00001	8b ec		 mov	 ebp, esp
  00003	81 ec d8 00 00
	00		 sub	 esp, 216		; 000000d8H
  00009	53		 push	 ebx
  0000a	56		 push	 esi
  0000b	57		 push	 edi
  0000c	8d 7d e8	 lea	 edi, DWORD PTR [ebp-24]
  0000f	b9 06 00 00 00	 mov	 ecx, 6
  00014	b8 cc cc cc cc	 mov	 eax, -858993460		; ccccccccH
  00019	f3 ab		 rep stosd
  0001b	b9 00 00 00 00	 mov	 ecx, OFFSET __72700B68_DATE_CHECK@cpp
  00020	e8 00 00 00 00	 call	 @__CheckForDebuggerJustMyCode@4

; 20   :     bool check = true, check_d = true;

  00025	c6 45 fb 01	 mov	 BYTE PTR _check$[ebp], 1
  00029	c6 45 ef 01	 mov	 BYTE PTR _check_d$[ebp], 1

; 21   :     if (date > 9999 or date < 1000) { cout << "    " << endl << endl; return false; }

  0002d	81 7d 14 0f 27
	00 00		 cmp	 DWORD PTR _date$[ebp], 9999 ; 0000270fH
  00034	7f 09		 jg	 SHORT $LN3@birthday_d
  00036	81 7d 14 e8 03
	00 00		 cmp	 DWORD PTR _date$[ebp], 1000 ; 000003e8H
  0003d	7d 46		 jge	 SHORT $LN2@birthday_d
$LN3@birthday_d:
  0003f	8b f4		 mov	 esi, esp
  00041	68 00 00 00 00	 push	 OFFSET ??$endl@DU?$char_traits@D@std@@@std@@YAAAV?$basic_ostream@DU?$char_traits@D@std@@@0@AAV10@@Z ; std::endl<char,std::char_traits<char> >
  00046	8b fc		 mov	 edi, esp
  00048	68 00 00 00 00	 push	 OFFSET ??$endl@DU?$char_traits@D@std@@@std@@YAAAV?$basic_ostream@DU?$char_traits@D@std@@@0@AAV10@@Z ; std::endl<char,std::char_traits<char> >
  0004d	68 00 00 00 00	 push	 OFFSET ??_C@_0CE@KCBCHKMK@?D?$OA?r?$OA?5?b?b?e?d?e?m?$OA?5?b?5?m?e?o?p?$OA?b?h?k?$PM?m?n?l?5?t?n?p@
  00052	a1 00 00 00 00	 mov	 eax, DWORD PTR __imp_?cout@std@@3V?$basic_ostream@DU?$char_traits@D@std@@@1@A
  00057	50		 push	 eax
  00058	e8 00 00 00 00	 call	 ??$?6U?$char_traits@D@std@@@std@@YAAAV?$basic_ostream@DU?$char_traits@D@std@@@0@AAV10@PBD@Z ; std::operator<<<std::char_traits<char> >
  0005d	83 c4 08	 add	 esp, 8
  00060	8b c8		 mov	 ecx, eax
  00062	ff 15 00 00 00
	00		 call	 DWORD PTR __imp_??6?$basic_ostream@DU?$char_traits@D@std@@@std@@QAEAAV01@P6AAAV01@AAV01@@Z@Z
  00068	3b fc		 cmp	 edi, esp
  0006a	e8 00 00 00 00	 call	 __RTC_CheckEsp
  0006f	8b c8		 mov	 ecx, eax
  00071	ff 15 00 00 00
	00		 call	 DWORD PTR __imp_??6?$basic_ostream@DU?$char_traits@D@std@@@std@@QAEAAV01@P6AAAV01@AAV01@@Z@Z
  00077	3b f4		 cmp	 esi, esp
  00079	e8 00 00 00 00	 call	 __RTC_CheckEsp
  0007e	32 c0		 xor	 al, al
  00080	e9 b8 00 00 00	 jmp	 $LN1@birthday_d
$LN2@birthday_d:

; 22   :     if (month < 1 or month > 12) { cout << "  " << endl; check = false; }

  00085	83 7d 0c 01	 cmp	 DWORD PTR _month$[ebp], 1
  00089	7c 06		 jl	 SHORT $LN5@birthday_d
  0008b	83 7d 0c 0c	 cmp	 DWORD PTR _month$[ebp], 12 ; 0000000cH
  0008f	7e 2d		 jle	 SHORT $LN4@birthday_d
$LN5@birthday_d:
  00091	8b f4		 mov	 esi, esp
  00093	68 00 00 00 00	 push	 OFFSET ??$endl@DU?$char_traits@D@std@@@std@@YAAAV?$basic_ostream@DU?$char_traits@D@std@@@0@AAV10@@Z ; std::endl<char,std::char_traits<char> >
  00098	68 00 00 00 00	 push	 OFFSET ??_C@_0BK@IFNNDDB@?S?j?$OA?g?$OA?m?5?m?e?o?p?$OA?b?h?k?$PM?m?$PL?i?5?l?e?q?$PP?v@
  0009d	a1 00 00 00 00	 mov	 eax, DWORD PTR __imp_?cout@std@@3V?$basic_ostream@DU?$char_traits@D@std@@@1@A
  000a2	50		 push	 eax
  000a3	e8 00 00 00 00	 call	 ??$?6U?$char_traits@D@std@@@std@@YAAAV?$basic_ostream@DU?$char_traits@D@std@@@0@AAV10@PBD@Z ; std::operator<<<std::char_traits<char> >
  000a8	83 c4 08	 add	 esp, 8
  000ab	8b c8		 mov	 ecx, eax
  000ad	ff 15 00 00 00
	00		 call	 DWORD PTR __imp_??6?$basic_ostream@DU?$char_traits@D@std@@@std@@QAEAAV01@P6AAAV01@AAV01@@Z@Z
  000b3	3b f4		 cmp	 esi, esp
  000b5	e8 00 00 00 00	 call	 __RTC_CheckEsp
  000ba	c6 45 fb 00	 mov	 BYTE PTR _check$[ebp], 0
$LN4@birthday_d:

; 23   :     if (LEAP_YEAR_CHECK(year) and month == 2 and day == 29) { check_d = true; }

  000be	8b 45 10	 mov	 eax, DWORD PTR _year$[ebp]
  000c1	50		 push	 eax
  000c2	e8 00 00 00 00	 call	 ?LEAP_YEAR_CHECK@@YA_NH@Z ; LEAP_YEAR_CHECK
  000c7	83 c4 04	 add	 esp, 4
  000ca	0f b6 c8	 movzx	 ecx, al
  000cd	85 c9		 test	 ecx, ecx
  000cf	74 12		 je	 SHORT $LN6@birthday_d
  000d1	83 7d 0c 02	 cmp	 DWORD PTR _month$[ebp], 2
  000d5	75 0c		 jne	 SHORT $LN6@birthday_d
  000d7	83 7d 08 1d	 cmp	 DWORD PTR _day$[ebp], 29 ; 0000001dH
  000db	75 06		 jne	 SHORT $LN6@birthday_d
  000dd	c6 45 ef 01	 mov	 BYTE PTR _check_d$[ebp], 1
  000e1	eb 42		 jmp	 SHORT $LN7@birthday_d
$LN6@birthday_d:

; 24   :     else if (day > days_in_month[month - 1] or day < 1) { cout << "  " << endl; check_d = false; }

  000e3	8b 45 0c	 mov	 eax, DWORD PTR _month$[ebp]
  000e6	8b 4d 08	 mov	 ecx, DWORD PTR _day$[ebp]
  000e9	3b 0c 85 fc ff
	ff ff		 cmp	 ecx, DWORD PTR ?days_in_month@@3PAHA[eax*4-4]
  000f0	7f 06		 jg	 SHORT $LN9@birthday_d
  000f2	83 7d 08 01	 cmp	 DWORD PTR _day$[ebp], 1
  000f6	7d 2d		 jge	 SHORT $LN7@birthday_d
$LN9@birthday_d:
  000f8	8b f4		 mov	 esi, esp
  000fa	68 00 00 00 00	 push	 OFFSET ??$endl@DU?$char_traits@D@std@@@std@@YAAAV?$basic_ostream@DU?$char_traits@D@std@@@0@AAV10@@Z ; std::endl<char,std::char_traits<char> >
  000ff	68 00 00 00 00	 push	 OFFSET ??_C@_0BJ@GKFBAJHC@?S?j?$OA?g?$OA?m?5?m?e?o?p?$OA?b?h?k?$PM?m?$PL?i?5?d?e?m?$PM@
  00104	a1 00 00 00 00	 mov	 eax, DWORD PTR __imp_?cout@std@@3V?$basic_ostream@DU?$char_traits@D@std@@@1@A
  00109	50		 push	 eax
  0010a	e8 00 00 00 00	 call	 ??$?6U?$char_traits@D@std@@@std@@YAAAV?$basic_ostream@DU?$char_traits@D@std@@@0@AAV10@PBD@Z ; std::operator<<<std::char_traits<char> >
  0010f	83 c4 08	 add	 esp, 8
  00112	8b c8		 mov	 ecx, eax
  00114	ff 15 00 00 00
	00		 call	 DWORD PTR __imp_??6?$basic_ostream@DU?$char_traits@D@std@@@std@@QAEAAV01@P6AAAV01@AAV01@@Z@Z
  0011a	3b f4		 cmp	 esi, esp
  0011c	e8 00 00 00 00	 call	 __RTC_CheckEsp
  00121	c6 45 ef 00	 mov	 BYTE PTR _check_d$[ebp], 0
$LN7@birthday_d:

; 25   :     if (check and check_d) { return true; }

  00125	0f b6 45 fb	 movzx	 eax, BYTE PTR _check$[ebp]
  00129	85 c0		 test	 eax, eax
  0012b	74 0e		 je	 SHORT $LN10@birthday_d
  0012d	0f b6 45 ef	 movzx	 eax, BYTE PTR _check_d$[ebp]
  00131	85 c0		 test	 eax, eax
  00133	74 06		 je	 SHORT $LN10@birthday_d
  00135	b0 01		 mov	 al, 1
  00137	eb 04		 jmp	 SHORT $LN1@birthday_d
  00139	eb 02		 jmp	 SHORT $LN1@birthday_d
$LN10@birthday_d:

; 26   :     else { return false; }

  0013b	32 c0		 xor	 al, al
$LN1@birthday_d:

; 27   : }

  0013d	5f		 pop	 edi
  0013e	5e		 pop	 esi
  0013f	5b		 pop	 ebx
  00140	81 c4 d8 00 00
	00		 add	 esp, 216		; 000000d8H
  00146	3b ec		 cmp	 ebp, esp
  00148	e8 00 00 00 00	 call	 __RTC_CheckEsp
  0014d	8b e5		 mov	 esp, ebp
  0014f	5d		 pop	 ebp
  00150	c3		 ret	 0
?birthday_datecheck@@YA_NHHHH@Z ENDP			; birthday_datecheck
_TEXT	ENDS
; Function compile flags: /Odtp /RTCsu /ZI
; File D:\BSTU\2 sem\KPO\Labs\1 lab\lab1\first task\DATE_CHECK.cpp
;	COMDAT ?datecheck@@YA_NHHHH@Z
_TEXT	SEGMENT
_i$1 = -32						; size = 4
_check_d$ = -17						; size = 1
_check$ = -5						; size = 1
_day$ = 8						; size = 4
_month$ = 12						; size = 4
_year$ = 16						; size = 4
_date$ = 20						; size = 4
?datecheck@@YA_NHHHH@Z PROC				; datecheck, COMDAT

; 3    : bool datecheck(int day, int month, int year, int date) {

  00000	55		 push	 ebp
  00001	8b ec		 mov	 ebp, esp
  00003	81 ec e4 00 00
	00		 sub	 esp, 228		; 000000e4H
  00009	53		 push	 ebx
  0000a	56		 push	 esi
  0000b	57		 push	 edi
  0000c	8d 7d dc	 lea	 edi, DWORD PTR [ebp-36]
  0000f	b9 09 00 00 00	 mov	 ecx, 9
  00014	b8 cc cc cc cc	 mov	 eax, -858993460		; ccccccccH
  00019	f3 ab		 rep stosd
  0001b	b9 00 00 00 00	 mov	 ecx, OFFSET __72700B68_DATE_CHECK@cpp
  00020	e8 00 00 00 00	 call	 @__CheckForDebuggerJustMyCode@4

; 4    :     bool check = true, check_d = true;

  00025	c6 45 fb 01	 mov	 BYTE PTR _check$[ebp], 1
  00029	c6 45 ef 01	 mov	 BYTE PTR _check_d$[ebp], 1

; 5    :     for (int i = 1; i < 100000000; i *= 10) {

  0002d	c7 45 e0 01 00
	00 00		 mov	 DWORD PTR _i$1[ebp], 1
  00034	eb 07		 jmp	 SHORT $LN4@datecheck
$LN2@datecheck:
  00036	6b 45 e0 0a	 imul	 eax, DWORD PTR _i$1[ebp], 10
  0003a	89 45 e0	 mov	 DWORD PTR _i$1[ebp], eax
$LN4@datecheck:
  0003d	81 7d e0 00 e1
	f5 05		 cmp	 DWORD PTR _i$1[ebp], 100000000 ; 05f5e100H
  00044	7d 75		 jge	 SHORT $LN3@datecheck

; 6    :         if ((date % (10 * i)) / i > '9' or (date % (10 * i)) / i < '0') { cout << "      " << endl << endl; return false; }

  00046	6b 4d e0 0a	 imul	 ecx, DWORD PTR _i$1[ebp], 10
  0004a	8b 45 14	 mov	 eax, DWORD PTR _date$[ebp]
  0004d	99		 cdq
  0004e	f7 f9		 idiv	 ecx
  00050	8b c2		 mov	 eax, edx
  00052	99		 cdq
  00053	f7 7d e0	 idiv	 DWORD PTR _i$1[ebp]
  00056	83 f8 39	 cmp	 eax, 57			; 00000039H
  00059	7f 15		 jg	 SHORT $LN6@datecheck
  0005b	6b 4d e0 0a	 imul	 ecx, DWORD PTR _i$1[ebp], 10
  0005f	8b 45 14	 mov	 eax, DWORD PTR _date$[ebp]
  00062	99		 cdq
  00063	f7 f9		 idiv	 ecx
  00065	8b c2		 mov	 eax, edx
  00067	99		 cdq
  00068	f7 7d e0	 idiv	 DWORD PTR _i$1[ebp]
  0006b	83 f8 30	 cmp	 eax, 48			; 00000030H
  0006e	7d 46		 jge	 SHORT $LN5@datecheck
$LN6@datecheck:
  00070	8b f4		 mov	 esi, esp
  00072	68 00 00 00 00	 push	 OFFSET ??$endl@DU?$char_traits@D@std@@@std@@YAAAV?$basic_ostream@DU?$char_traits@D@std@@@0@AAV10@@Z ; std::endl<char,std::char_traits<char> >
  00077	8b fc		 mov	 edi, esp
  00079	68 00 00 00 00	 push	 OFFSET ??$endl@DU?$char_traits@D@std@@@std@@YAAAV?$basic_ostream@DU?$char_traits@D@std@@@0@AAV10@@Z ; std::endl<char,std::char_traits<char> >
  0007e	68 00 00 00 00	 push	 OFFSET ??_C@_0CE@IMCHNOLJ@?B?5?d?$OA?r?s?5?m?e?5?l?n?f?e?r?$PM?5?a?$PL?r?$PM?5?b?b?e?d?e?m?$OA?5?a@
  00083	a1 00 00 00 00	 mov	 eax, DWORD PTR __imp_?cout@std@@3V?$basic_ostream@DU?$char_traits@D@std@@@1@A
  00088	50		 push	 eax
  00089	e8 00 00 00 00	 call	 ??$?6U?$char_traits@D@std@@@std@@YAAAV?$basic_ostream@DU?$char_traits@D@std@@@0@AAV10@PBD@Z ; std::operator<<<std::char_traits<char> >
  0008e	83 c4 08	 add	 esp, 8
  00091	8b c8		 mov	 ecx, eax
  00093	ff 15 00 00 00
	00		 call	 DWORD PTR __imp_??6?$basic_ostream@DU?$char_traits@D@std@@@std@@QAEAAV01@P6AAAV01@AAV01@@Z@Z
  00099	3b fc		 cmp	 edi, esp
  0009b	e8 00 00 00 00	 call	 __RTC_CheckEsp
  000a0	8b c8		 mov	 ecx, eax
  000a2	ff 15 00 00 00
	00		 call	 DWORD PTR __imp_??6?$basic_ostream@DU?$char_traits@D@std@@@std@@QAEAAV01@P6AAAV01@AAV01@@Z@Z
  000a8	3b f4		 cmp	 esi, esp
  000aa	e8 00 00 00 00	 call	 __RTC_CheckEsp
  000af	32 c0		 xor	 al, al
  000b1	e9 57 01 00 00	 jmp	 $LN1@datecheck
$LN5@datecheck:

; 7    :     }

  000b6	e9 7b ff ff ff	 jmp	 $LN2@datecheck
$LN3@datecheck:

; 8    :     if (date > 99999999 or date < 10000000) {

  000bb	81 7d 14 ff e0
	f5 05		 cmp	 DWORD PTR _date$[ebp], 99999999 ; 05f5e0ffH
  000c2	7f 09		 jg	 SHORT $LN8@datecheck
  000c4	81 7d 14 80 96
	98 00		 cmp	 DWORD PTR _date$[ebp], 10000000 ; 00989680H
  000cb	7d 55		 jge	 SHORT $LN7@datecheck
$LN8@datecheck:

; 9    :         if (date < 10000000 and day>10) { cout << "    " << endl << endl; return false; }

  000cd	81 7d 14 80 96
	98 00		 cmp	 DWORD PTR _date$[ebp], 10000000 ; 00989680H
  000d4	7d 4c		 jge	 SHORT $LN7@datecheck
  000d6	83 7d 08 0a	 cmp	 DWORD PTR _day$[ebp], 10 ; 0000000aH
  000da	7e 46		 jle	 SHORT $LN7@datecheck
  000dc	8b f4		 mov	 esi, esp
  000de	68 00 00 00 00	 push	 OFFSET ??$endl@DU?$char_traits@D@std@@@std@@YAAAV?$basic_ostream@DU?$char_traits@D@std@@@0@AAV10@@Z ; std::endl<char,std::char_traits<char> >
  000e3	8b fc		 mov	 edi, esp
  000e5	68 00 00 00 00	 push	 OFFSET ??$endl@DU?$char_traits@D@std@@@std@@YAAAV?$basic_ostream@DU?$char_traits@D@std@@@0@AAV10@@Z ; std::endl<char,std::char_traits<char> >
  000ea	68 00 00 00 00	 push	 OFFSET ??_C@_0CE@KCBCHKMK@?D?$OA?r?$OA?5?b?b?e?d?e?m?$OA?5?b?5?m?e?o?p?$OA?b?h?k?$PM?m?n?l?5?t?n?p@
  000ef	a1 00 00 00 00	 mov	 eax, DWORD PTR __imp_?cout@std@@3V?$basic_ostream@DU?$char_traits@D@std@@@1@A
  000f4	50		 push	 eax
  000f5	e8 00 00 00 00	 call	 ??$?6U?$char_traits@D@std@@@std@@YAAAV?$basic_ostream@DU?$char_traits@D@std@@@0@AAV10@PBD@Z ; std::operator<<<std::char_traits<char> >
  000fa	83 c4 08	 add	 esp, 8
  000fd	8b c8		 mov	 ecx, eax
  000ff	ff 15 00 00 00
	00		 call	 DWORD PTR __imp_??6?$basic_ostream@DU?$char_traits@D@std@@@std@@QAEAAV01@P6AAAV01@AAV01@@Z@Z
  00105	3b fc		 cmp	 edi, esp
  00107	e8 00 00 00 00	 call	 __RTC_CheckEsp
  0010c	8b c8		 mov	 ecx, eax
  0010e	ff 15 00 00 00
	00		 call	 DWORD PTR __imp_??6?$basic_ostream@DU?$char_traits@D@std@@@std@@QAEAAV01@P6AAAV01@AAV01@@Z@Z
  00114	3b f4		 cmp	 esi, esp
  00116	e8 00 00 00 00	 call	 __RTC_CheckEsp
  0011b	32 c0		 xor	 al, al
  0011d	e9 eb 00 00 00	 jmp	 $LN1@datecheck
$LN7@datecheck:

; 10   :     }
; 11   :     if (year == 0) { { cout << "  " << endl; check = false; } }

  00122	83 7d 10 00	 cmp	 DWORD PTR _year$[ebp], 0
  00126	75 2d		 jne	 SHORT $LN10@datecheck
  00128	8b f4		 mov	 esi, esp
  0012a	68 00 00 00 00	 push	 OFFSET ??$endl@DU?$char_traits@D@std@@@std@@YAAAV?$basic_ostream@DU?$char_traits@D@std@@@0@AAV10@@Z ; std::endl<char,std::char_traits<char> >
  0012f	68 00 00 00 00	 push	 OFFSET ??_C@_0BI@BFGCFCDH@?S?j?$OA?g?$OA?m?5?m?e?o?p?$OA?b?h?k?$PM?m?$PL?i?5?c?n?d@
  00134	a1 00 00 00 00	 mov	 eax, DWORD PTR __imp_?cout@std@@3V?$basic_ostream@DU?$char_traits@D@std@@@1@A
  00139	50		 push	 eax
  0013a	e8 00 00 00 00	 call	 ??$?6U?$char_traits@D@std@@@std@@YAAAV?$basic_ostream@DU?$char_traits@D@std@@@0@AAV10@PBD@Z ; std::operator<<<std::char_traits<char> >
  0013f	83 c4 08	 add	 esp, 8
  00142	8b c8		 mov	 ecx, eax
  00144	ff 15 00 00 00
	00		 call	 DWORD PTR __imp_??6?$basic_ostream@DU?$char_traits@D@std@@@std@@QAEAAV01@P6AAAV01@AAV01@@Z@Z
  0014a	3b f4		 cmp	 esi, esp
  0014c	e8 00 00 00 00	 call	 __RTC_CheckEsp
  00151	c6 45 fb 00	 mov	 BYTE PTR _check$[ebp], 0
$LN10@datecheck:

; 12   :     if (month < 1 or month > 12) { cout << "  " << endl; check = false; }

  00155	83 7d 0c 01	 cmp	 DWORD PTR _month$[ebp], 1
  00159	7c 06		 jl	 SHORT $LN12@datecheck
  0015b	83 7d 0c 0c	 cmp	 DWORD PTR _month$[ebp], 12 ; 0000000cH
  0015f	7e 2d		 jle	 SHORT $LN11@datecheck
$LN12@datecheck:
  00161	8b f4		 mov	 esi, esp
  00163	68 00 00 00 00	 push	 OFFSET ??$endl@DU?$char_traits@D@std@@@std@@YAAAV?$basic_ostream@DU?$char_traits@D@std@@@0@AAV10@@Z ; std::endl<char,std::char_traits<char> >
  00168	68 00 00 00 00	 push	 OFFSET ??_C@_0BK@IFNNDDB@?S?j?$OA?g?$OA?m?5?m?e?o?p?$OA?b?h?k?$PM?m?$PL?i?5?l?e?q?$PP?v@
  0016d	a1 00 00 00 00	 mov	 eax, DWORD PTR __imp_?cout@std@@3V?$basic_ostream@DU?$char_traits@D@std@@@1@A
  00172	50		 push	 eax
  00173	e8 00 00 00 00	 call	 ??$?6U?$char_traits@D@std@@@std@@YAAAV?$basic_ostream@DU?$char_traits@D@std@@@0@AAV10@PBD@Z ; std::operator<<<std::char_traits<char> >
  00178	83 c4 08	 add	 esp, 8
  0017b	8b c8		 mov	 ecx, eax
  0017d	ff 15 00 00 00
	00		 call	 DWORD PTR __imp_??6?$basic_ostream@DU?$char_traits@D@std@@@std@@QAEAAV01@P6AAAV01@AAV01@@Z@Z
  00183	3b f4		 cmp	 esi, esp
  00185	e8 00 00 00 00	 call	 __RTC_CheckEsp
  0018a	c6 45 fb 00	 mov	 BYTE PTR _check$[ebp], 0
$LN11@datecheck:

; 13   :     if (LEAP_YEAR_CHECK(year) and month == 2 and day == 29) { check_d = true; }

  0018e	8b 45 10	 mov	 eax, DWORD PTR _year$[ebp]
  00191	50		 push	 eax
  00192	e8 00 00 00 00	 call	 ?LEAP_YEAR_CHECK@@YA_NH@Z ; LEAP_YEAR_CHECK
  00197	83 c4 04	 add	 esp, 4
  0019a	0f b6 c8	 movzx	 ecx, al
  0019d	85 c9		 test	 ecx, ecx
  0019f	74 12		 je	 SHORT $LN13@datecheck
  001a1	83 7d 0c 02	 cmp	 DWORD PTR _month$[ebp], 2
  001a5	75 0c		 jne	 SHORT $LN13@datecheck
  001a7	83 7d 08 1d	 cmp	 DWORD PTR _day$[ebp], 29 ; 0000001dH
  001ab	75 06		 jne	 SHORT $LN13@datecheck
  001ad	c6 45 ef 01	 mov	 BYTE PTR _check_d$[ebp], 1
  001b1	eb 42		 jmp	 SHORT $LN14@datecheck
$LN13@datecheck:

; 14   :     else if (day > days_in_month[month - 1] or day < 1) { cout << "  " << endl; check_d = false; }

  001b3	8b 45 0c	 mov	 eax, DWORD PTR _month$[ebp]
  001b6	8b 4d 08	 mov	 ecx, DWORD PTR _day$[ebp]
  001b9	3b 0c 85 fc ff
	ff ff		 cmp	 ecx, DWORD PTR ?days_in_month@@3PAHA[eax*4-4]
  001c0	7f 06		 jg	 SHORT $LN16@datecheck
  001c2	83 7d 08 01	 cmp	 DWORD PTR _day$[ebp], 1
  001c6	7d 2d		 jge	 SHORT $LN14@datecheck
$LN16@datecheck:
  001c8	8b f4		 mov	 esi, esp
  001ca	68 00 00 00 00	 push	 OFFSET ??$endl@DU?$char_traits@D@std@@@std@@YAAAV?$basic_ostream@DU?$char_traits@D@std@@@0@AAV10@@Z ; std::endl<char,std::char_traits<char> >
  001cf	68 00 00 00 00	 push	 OFFSET ??_C@_0BJ@GKFBAJHC@?S?j?$OA?g?$OA?m?5?m?e?o?p?$OA?b?h?k?$PM?m?$PL?i?5?d?e?m?$PM@
  001d4	a1 00 00 00 00	 mov	 eax, DWORD PTR __imp_?cout@std@@3V?$basic_ostream@DU?$char_traits@D@std@@@1@A
  001d9	50		 push	 eax
  001da	e8 00 00 00 00	 call	 ??$?6U?$char_traits@D@std@@@std@@YAAAV?$basic_ostream@DU?$char_traits@D@std@@@0@AAV10@PBD@Z ; std::operator<<<std::char_traits<char> >
  001df	83 c4 08	 add	 esp, 8
  001e2	8b c8		 mov	 ecx, eax
  001e4	ff 15 00 00 00
	00		 call	 DWORD PTR __imp_??6?$basic_ostream@DU?$char_traits@D@std@@@std@@QAEAAV01@P6AAAV01@AAV01@@Z@Z
  001ea	3b f4		 cmp	 esi, esp
  001ec	e8 00 00 00 00	 call	 __RTC_CheckEsp
  001f1	c6 45 ef 00	 mov	 BYTE PTR _check_d$[ebp], 0
$LN14@datecheck:

; 15   :     if (check and check_d) { return true; }

  001f5	0f b6 45 fb	 movzx	 eax, BYTE PTR _check$[ebp]
  001f9	85 c0		 test	 eax, eax
  001fb	74 0e		 je	 SHORT $LN17@datecheck
  001fd	0f b6 45 ef	 movzx	 eax, BYTE PTR _check_d$[ebp]
  00201	85 c0		 test	 eax, eax
  00203	74 06		 je	 SHORT $LN17@datecheck
  00205	b0 01		 mov	 al, 1
  00207	eb 04		 jmp	 SHORT $LN1@datecheck
  00209	eb 02		 jmp	 SHORT $LN1@datecheck
$LN17@datecheck:

; 16   :     else { return false; }

  0020b	32 c0		 xor	 al, al
$LN1@datecheck:

; 17   : }

  0020d	5f		 pop	 edi
  0020e	5e		 pop	 esi
  0020f	5b		 pop	 ebx
  00210	81 c4 e4 00 00
	00		 add	 esp, 228		; 000000e4H
  00216	3b ec		 cmp	 ebp, esp
  00218	e8 00 00 00 00	 call	 __RTC_CheckEsp
  0021d	8b e5		 mov	 esp, ebp
  0021f	5d		 pop	 ebp
  00220	c3		 ret	 0
?datecheck@@YA_NHHHH@Z ENDP				; datecheck
_TEXT	ENDS
; Function compile flags: /Odtp /RTCsu /ZI
; File D:\Soft\Microsoft Visual Studio\VC\Tools\MSVC\14.33.31629\include\xstring
;	COMDAT ?eof@?$_Narrow_char_traits@DH@std@@SAHXZ
_TEXT	SEGMENT
?eof@?$_Narrow_char_traits@DH@std@@SAHXZ PROC		; std::_Narrow_char_traits<char,int>::eof, COMDAT

; 471  :     _NODISCARD static constexpr int_type eof() noexcept {

  00000	55		 push	 ebp
  00001	8b ec		 mov	 ebp, esp
  00003	81 ec c0 00 00
	00		 sub	 esp, 192		; 000000c0H
  00009	53		 push	 ebx
  0000a	56		 push	 esi
  0000b	57		 push	 edi
  0000c	8b fd		 mov	 edi, ebp
  0000e	33 c9		 xor	 ecx, ecx
  00010	b8 cc cc cc cc	 mov	 eax, -858993460		; ccccccccH
  00015	f3 ab		 rep stosd
  00017	b9 00 00 00 00	 mov	 ecx, OFFSET __33925EC6_xstring
  0001c	e8 00 00 00 00	 call	 @__CheckForDebuggerJustMyCode@4

; 472  :         return static_cast<int_type>(EOF);

  00021	83 c8 ff	 or	 eax, -1

; 473  :     }

  00024	5f		 pop	 edi
  00025	5e		 pop	 esi
  00026	5b		 pop	 ebx
  00027	81 c4 c0 00 00
	00		 add	 esp, 192		; 000000c0H
  0002d	3b ec		 cmp	 ebp, esp
  0002f	e8 00 00 00 00	 call	 __RTC_CheckEsp
  00034	8b e5		 mov	 esp, ebp
  00036	5d		 pop	 ebp
  00037	c3		 ret	 0
?eof@?$_Narrow_char_traits@DH@std@@SAHXZ ENDP		; std::_Narrow_char_traits<char,int>::eof
_TEXT	ENDS
; Function compile flags: /Odtp /RTCsu /ZI
; File D:\Soft\Microsoft Visual Studio\VC\Tools\MSVC\14.33.31629\include\xstring
;	COMDAT ?eq_int_type@?$_Narrow_char_traits@DH@std@@SA_NABH0@Z
_TEXT	SEGMENT
tv65 = -196						; size = 4
__Left$ = 8						; size = 4
__Right$ = 12						; size = 4
?eq_int_type@?$_Narrow_char_traits@DH@std@@SA_NABH0@Z PROC ; std::_Narrow_char_traits<char,int>::eq_int_type, COMDAT

; 463  :     _NODISCARD static constexpr bool eq_int_type(const int_type& _Left, const int_type& _Right) noexcept {

  00000	55		 push	 ebp
  00001	8b ec		 mov	 ebp, esp
  00003	81 ec c4 00 00
	00		 sub	 esp, 196		; 000000c4H
  00009	53		 push	 ebx
  0000a	56		 push	 esi
  0000b	57		 push	 edi
  0000c	8d 7d fc	 lea	 edi, DWORD PTR [ebp-4]
  0000f	b9 01 00 00 00	 mov	 ecx, 1
  00014	b8 cc cc cc cc	 mov	 eax, -858993460		; ccccccccH
  00019	f3 ab		 rep stosd
  0001b	b9 00 00 00 00	 mov	 ecx, OFFSET __33925EC6_xstring
  00020	e8 00 00 00 00	 call	 @__CheckForDebuggerJustMyCode@4

; 464  :         return _Left == _Right;

  00025	8b 45 08	 mov	 eax, DWORD PTR __Left$[ebp]
  00028	8b 4d 0c	 mov	 ecx, DWORD PTR __Right$[ebp]
  0002b	8b 10		 mov	 edx, DWORD PTR [eax]
  0002d	3b 11		 cmp	 edx, DWORD PTR [ecx]
  0002f	75 0c		 jne	 SHORT $LN3@eq_int_typ
  00031	c7 85 3c ff ff
	ff 01 00 00 00	 mov	 DWORD PTR tv65[ebp], 1
  0003b	eb 0a		 jmp	 SHORT $LN4@eq_int_typ
$LN3@eq_int_typ:
  0003d	c7 85 3c ff ff
	ff 00 00 00 00	 mov	 DWORD PTR tv65[ebp], 0
$LN4@eq_int_typ:
  00047	8a 85 3c ff ff
	ff		 mov	 al, BYTE PTR tv65[ebp]

; 465  :     }

  0004d	5f		 pop	 edi
  0004e	5e		 pop	 esi
  0004f	5b		 pop	 ebx
  00050	81 c4 c4 00 00
	00		 add	 esp, 196		; 000000c4H
  00056	3b ec		 cmp	 ebp, esp
  00058	e8 00 00 00 00	 call	 __RTC_CheckEsp
  0005d	8b e5		 mov	 esp, ebp
  0005f	5d		 pop	 ebp
  00060	c3		 ret	 0
?eq_int_type@?$_Narrow_char_traits@DH@std@@SA_NABH0@Z ENDP ; std::_Narrow_char_traits<char,int>::eq_int_type
_TEXT	ENDS
; Function compile flags: /Odtp /RTCsu /ZI
; File D:\Soft\Microsoft Visual Studio\VC\Tools\MSVC\14.33.31629\include\xstring
;	COMDAT ?length@?$_Narrow_char_traits@DH@std@@SAIQBD@Z
_TEXT	SEGMENT
__First$ = 8						; size = 4
?length@?$_Narrow_char_traits@DH@std@@SAIQBD@Z PROC	; std::_Narrow_char_traits<char,int>::length, COMDAT

; 385  :     _NODISCARD static _CONSTEXPR17 size_t length(_In_z_ const _Elem* const _First) noexcept /* strengthened */ {

  00000	55		 push	 ebp
  00001	8b ec		 mov	 ebp, esp
  00003	81 ec c0 00 00
	00		 sub	 esp, 192		; 000000c0H
  00009	53		 push	 ebx
  0000a	56		 push	 esi
  0000b	57		 push	 edi
  0000c	8b fd		 mov	 edi, ebp
  0000e	33 c9		 xor	 ecx, ecx
  00010	b8 cc cc cc cc	 mov	 eax, -858993460		; ccccccccH
  00015	f3 ab		 rep stosd
  00017	b9 00 00 00 00	 mov	 ecx, OFFSET __33925EC6_xstring
  0001c	e8 00 00 00 00	 call	 @__CheckForDebuggerJustMyCode@4

; 386  :         // find length of null-terminated string
; 387  : #if _HAS_CXX17
; 388  : #ifdef __cpp_char8_t
; 389  :         if constexpr (is_same_v<_Elem, char8_t>) {
; 390  : #if _HAS_U8_INTRINSICS
; 391  :             return __builtin_u8strlen(_First);
; 392  : #else // ^^^ use u8 intrinsics / no u8 intrinsics vvv
; 393  :             return _Primary_char_traits::length(_First);
; 394  : #endif // _HAS_U8_INTRINSICS
; 395  :         } else
; 396  : #endif // __cpp_char8_t
; 397  :         {
; 398  :             return __builtin_strlen(_First);
; 399  :         }
; 400  : #else // _HAS_CXX17
; 401  :         return _CSTD strlen(reinterpret_cast<const char*>(_First));

  00021	8b 45 08	 mov	 eax, DWORD PTR __First$[ebp]
  00024	50		 push	 eax
  00025	e8 00 00 00 00	 call	 _strlen
  0002a	83 c4 04	 add	 esp, 4

; 402  : #endif // _HAS_CXX17
; 403  :     }

  0002d	5f		 pop	 edi
  0002e	5e		 pop	 esi
  0002f	5b		 pop	 ebx
  00030	81 c4 c0 00 00
	00		 add	 esp, 192		; 000000c0H
  00036	3b ec		 cmp	 ebp, esp
  00038	e8 00 00 00 00	 call	 __RTC_CheckEsp
  0003d	8b e5		 mov	 esp, ebp
  0003f	5d		 pop	 ebp
  00040	c3		 ret	 0
?length@?$_Narrow_char_traits@DH@std@@SAIQBD@Z ENDP	; std::_Narrow_char_traits<char,int>::length
_TEXT	ENDS
; Function compile flags: /Odtp /RTCsu /ZI
; File D:\BSTU\2 sem\KPO\Labs\1 lab\lab1\first task\DATE_CHECK.cpp
;	COMDAT ?__empty_global_delete@@YAXPAXI@Z
_TEXT	SEGMENT
___formal$ = 8						; size = 4
___formal$ = 12						; size = 4
?__empty_global_delete@@YAXPAXI@Z PROC			; __empty_global_delete, COMDAT

  00000	55		 push	 ebp
  00001	8b ec		 mov	 ebp, esp
  00003	81 ec c0 00 00
	00		 sub	 esp, 192		; 000000c0H
  00009	53		 push	 ebx
  0000a	56		 push	 esi
  0000b	57		 push	 edi
  0000c	8b fd		 mov	 edi, ebp
  0000e	33 c9		 xor	 ecx, ecx
  00010	b8 cc cc cc cc	 mov	 eax, -858993460		; ccccccccH
  00015	f3 ab		 rep stosd
  00017	b9 00 00 00 00	 mov	 ecx, OFFSET __72700B68_DATE_CHECK@cpp
  0001c	e8 00 00 00 00	 call	 @__CheckForDebuggerJustMyCode@4
  00021	5f		 pop	 edi
  00022	5e		 pop	 esi
  00023	5b		 pop	 ebx
  00024	81 c4 c0 00 00
	00		 add	 esp, 192		; 000000c0H
  0002a	3b ec		 cmp	 ebp, esp
  0002c	e8 00 00 00 00	 call	 __RTC_CheckEsp
  00031	8b e5		 mov	 esp, ebp
  00033	5d		 pop	 ebp
  00034	c3		 ret	 0
?__empty_global_delete@@YAXPAXI@Z ENDP			; __empty_global_delete
_TEXT	ENDS
; Function compile flags: /Odtp /RTCsu /ZI
; File D:\BSTU\2 sem\KPO\Labs\1 lab\lab1\first task\DATE_CHECK.cpp
;	COMDAT ?__empty_global_delete@@YAXPAX@Z
_TEXT	SEGMENT
___formal$ = 8						; size = 4
?__empty_global_delete@@YAXPAX@Z PROC			; __empty_global_delete, COMDAT

  00000	55		 push	 ebp
  00001	8b ec		 mov	 ebp, esp
  00003	81 ec c0 00 00
	00		 sub	 esp, 192		; 000000c0H
  00009	53		 push	 ebx
  0000a	56		 push	 esi
  0000b	57		 push	 edi
  0000c	8b fd		 mov	 edi, ebp
  0000e	33 c9		 xor	 ecx, ecx
  00010	b8 cc cc cc cc	 mov	 eax, -858993460		; ccccccccH
  00015	f3 ab		 rep stosd
  00017	b9 00 00 00 00	 mov	 ecx, OFFSET __72700B68_DATE_CHECK@cpp
  0001c	e8 00 00 00 00	 call	 @__CheckForDebuggerJustMyCode@4
  00021	5f		 pop	 edi
  00022	5e		 pop	 esi
  00023	5b		 pop	 ebx
  00024	81 c4 c0 00 00
	00		 add	 esp, 192		; 000000c0H
  0002a	3b ec		 cmp	 ebp, esp
  0002c	e8 00 00 00 00	 call	 __RTC_CheckEsp
  00031	8b e5		 mov	 esp, ebp
  00033	5d		 pop	 ebp
  00034	c3		 ret	 0
?__empty_global_delete@@YAXPAX@Z ENDP			; __empty_global_delete
_TEXT	ENDS
END
