; Listing generated by Microsoft (R) Optimizing Compiler Version 19.33.31629.0 

	TITLE	D:\BSTU\2 sem\KPO\Labs\1 lab\lab1\first task\Debug\LEAP_YEAR.obj
	.686P
	.XMM
	include listing.inc
	.model	flat

INCLUDELIB MSVCRTD
INCLUDELIB OLDNAMES

msvcjmc	SEGMENT
__F27E49E1_first task@pch DB 01H
__6FA7CFB6_LEAP_YEAR@cpp DB 01H
__FCDCC866_stdafx@h DB 01H
__D5779D54_stdafx@cpp DB 01H
msvcjmc	ENDS
PUBLIC	?__empty_global_delete@@YAXPAX@Z		; __empty_global_delete
PUBLIC	?__empty_global_delete@@YAXPAXI@Z		; __empty_global_delete
PUBLIC	?LEAP_YEAR_CHECK@@YA_NH@Z			; LEAP_YEAR_CHECK
PUBLIC	?LEAP_YEAR_DAY@@YA_NHH@Z			; LEAP_YEAR_DAY
PUBLIC	__JustMyCode_Default
EXTRN	@__CheckForDebuggerJustMyCode@4:PROC
EXTRN	__RTC_CheckEsp:PROC
EXTRN	__RTC_InitBase:PROC
EXTRN	__RTC_Shutdown:PROC
;	COMDAT rtc$TMZ
rtc$TMZ	SEGMENT
__RTC_Shutdown.rtc$TMZ DD FLAT:__RTC_Shutdown
rtc$TMZ	ENDS
;	COMDAT rtc$IMZ
rtc$IMZ	SEGMENT
__RTC_InitBase.rtc$IMZ DD FLAT:__RTC_InitBase
rtc$IMZ	ENDS
; Function compile flags: /Odt
;	COMDAT __JustMyCode_Default
_TEXT	SEGMENT
__JustMyCode_Default PROC				; COMDAT
  00000	55		 push	 ebp
  00001	8b ec		 mov	 ebp, esp
  00003	5d		 pop	 ebp
  00004	c3		 ret	 0
__JustMyCode_Default ENDP
_TEXT	ENDS
; Function compile flags: /Odtp /RTCsu /ZI
; File D:\BSTU\2 sem\KPO\Labs\1 lab\lab1\first task\LEAP_YEAR.cpp
;	COMDAT ?LEAP_YEAR_DAY@@YA_NHH@Z
_TEXT	SEGMENT
_year$ = 8						; size = 4
_month$ = 12						; size = 4
?LEAP_YEAR_DAY@@YA_NHH@Z PROC				; LEAP_YEAR_DAY, COMDAT

; 8    : bool LEAP_YEAR_DAY(int year, int month) {

  00000	55		 push	 ebp
  00001	8b ec		 mov	 ebp, esp
  00003	81 ec c0 00 00
	00		 sub	 esp, 192		; 000000c0H
  00009	53		 push	 ebx
  0000a	56		 push	 esi
  0000b	57		 push	 edi
  0000c	8b fd		 mov	 edi, ebp
  0000e	33 c9		 xor	 ecx, ecx
  00010	b8 cc cc cc cc	 mov	 eax, -858993460		; ccccccccH
  00015	f3 ab		 rep stosd
  00017	b9 00 00 00 00	 mov	 ecx, OFFSET __6FA7CFB6_LEAP_YEAR@cpp
  0001c	e8 00 00 00 00	 call	 @__CheckForDebuggerJustMyCode@4

; 9    :     if (year % 4 == 0 && month >= 2) { return true; }

  00021	8b 45 08	 mov	 eax, DWORD PTR _year$[ebp]
  00024	25 03 00 00 80	 and	 eax, -2147483645	; 80000003H
  00029	79 05		 jns	 SHORT $LN5@LEAP_YEAR_
  0002b	48		 dec	 eax
  0002c	83 c8 fc	 or	 eax, -4			; fffffffcH
  0002f	40		 inc	 eax
$LN5@LEAP_YEAR_:
  00030	85 c0		 test	 eax, eax
  00032	75 0c		 jne	 SHORT $LN2@LEAP_YEAR_
  00034	83 7d 0c 02	 cmp	 DWORD PTR _month$[ebp], 2
  00038	7c 06		 jl	 SHORT $LN2@LEAP_YEAR_
  0003a	b0 01		 mov	 al, 1
  0003c	eb 04		 jmp	 SHORT $LN1@LEAP_YEAR_
  0003e	eb 02		 jmp	 SHORT $LN1@LEAP_YEAR_
$LN2@LEAP_YEAR_:

; 10   :     else { return false; }

  00040	32 c0		 xor	 al, al
$LN1@LEAP_YEAR_:

; 11   : }

  00042	5f		 pop	 edi
  00043	5e		 pop	 esi
  00044	5b		 pop	 ebx
  00045	81 c4 c0 00 00
	00		 add	 esp, 192		; 000000c0H
  0004b	3b ec		 cmp	 ebp, esp
  0004d	e8 00 00 00 00	 call	 __RTC_CheckEsp
  00052	8b e5		 mov	 esp, ebp
  00054	5d		 pop	 ebp
  00055	c3		 ret	 0
?LEAP_YEAR_DAY@@YA_NHH@Z ENDP				; LEAP_YEAR_DAY
_TEXT	ENDS
; Function compile flags: /Odtp /RTCsu /ZI
; File D:\BSTU\2 sem\KPO\Labs\1 lab\lab1\first task\LEAP_YEAR.cpp
;	COMDAT ?LEAP_YEAR_CHECK@@YA_NH@Z
_TEXT	SEGMENT
_year$ = 8						; size = 4
?LEAP_YEAR_CHECK@@YA_NH@Z PROC				; LEAP_YEAR_CHECK, COMDAT

; 3    : bool LEAP_YEAR_CHECK(int year) {

  00000	55		 push	 ebp
  00001	8b ec		 mov	 ebp, esp
  00003	81 ec c0 00 00
	00		 sub	 esp, 192		; 000000c0H
  00009	53		 push	 ebx
  0000a	56		 push	 esi
  0000b	57		 push	 edi
  0000c	8b fd		 mov	 edi, ebp
  0000e	33 c9		 xor	 ecx, ecx
  00010	b8 cc cc cc cc	 mov	 eax, -858993460		; ccccccccH
  00015	f3 ab		 rep stosd
  00017	b9 00 00 00 00	 mov	 ecx, OFFSET __6FA7CFB6_LEAP_YEAR@cpp
  0001c	e8 00 00 00 00	 call	 @__CheckForDebuggerJustMyCode@4

; 4    :     if (year % 4 == 0) { return true; }

  00021	8b 45 08	 mov	 eax, DWORD PTR _year$[ebp]
  00024	25 03 00 00 80	 and	 eax, -2147483645	; 80000003H
  00029	79 05		 jns	 SHORT $LN5@LEAP_YEAR_
  0002b	48		 dec	 eax
  0002c	83 c8 fc	 or	 eax, -4			; fffffffcH
  0002f	40		 inc	 eax
$LN5@LEAP_YEAR_:
  00030	85 c0		 test	 eax, eax
  00032	75 06		 jne	 SHORT $LN2@LEAP_YEAR_
  00034	b0 01		 mov	 al, 1
  00036	eb 04		 jmp	 SHORT $LN1@LEAP_YEAR_
  00038	eb 02		 jmp	 SHORT $LN1@LEAP_YEAR_
$LN2@LEAP_YEAR_:

; 5    :     else { return false; }

  0003a	32 c0		 xor	 al, al
$LN1@LEAP_YEAR_:

; 6    : }

  0003c	5f		 pop	 edi
  0003d	5e		 pop	 esi
  0003e	5b		 pop	 ebx
  0003f	81 c4 c0 00 00
	00		 add	 esp, 192		; 000000c0H
  00045	3b ec		 cmp	 ebp, esp
  00047	e8 00 00 00 00	 call	 __RTC_CheckEsp
  0004c	8b e5		 mov	 esp, ebp
  0004e	5d		 pop	 ebp
  0004f	c3		 ret	 0
?LEAP_YEAR_CHECK@@YA_NH@Z ENDP				; LEAP_YEAR_CHECK
_TEXT	ENDS
; Function compile flags: /Odtp /RTCsu /ZI
; File D:\BSTU\2 sem\KPO\Labs\1 lab\lab1\first task\LEAP_YEAR.cpp
;	COMDAT ?__empty_global_delete@@YAXPAXI@Z
_TEXT	SEGMENT
___formal$ = 8						; size = 4
___formal$ = 12						; size = 4
?__empty_global_delete@@YAXPAXI@Z PROC			; __empty_global_delete, COMDAT

  00000	55		 push	 ebp
  00001	8b ec		 mov	 ebp, esp
  00003	81 ec c0 00 00
	00		 sub	 esp, 192		; 000000c0H
  00009	53		 push	 ebx
  0000a	56		 push	 esi
  0000b	57		 push	 edi
  0000c	8b fd		 mov	 edi, ebp
  0000e	33 c9		 xor	 ecx, ecx
  00010	b8 cc cc cc cc	 mov	 eax, -858993460		; ccccccccH
  00015	f3 ab		 rep stosd
  00017	b9 00 00 00 00	 mov	 ecx, OFFSET __6FA7CFB6_LEAP_YEAR@cpp
  0001c	e8 00 00 00 00	 call	 @__CheckForDebuggerJustMyCode@4
  00021	5f		 pop	 edi
  00022	5e		 pop	 esi
  00023	5b		 pop	 ebx
  00024	81 c4 c0 00 00
	00		 add	 esp, 192		; 000000c0H
  0002a	3b ec		 cmp	 ebp, esp
  0002c	e8 00 00 00 00	 call	 __RTC_CheckEsp
  00031	8b e5		 mov	 esp, ebp
  00033	5d		 pop	 ebp
  00034	c3		 ret	 0
?__empty_global_delete@@YAXPAXI@Z ENDP			; __empty_global_delete
_TEXT	ENDS
; Function compile flags: /Odtp /RTCsu /ZI
; File D:\BSTU\2 sem\KPO\Labs\1 lab\lab1\first task\LEAP_YEAR.cpp
;	COMDAT ?__empty_global_delete@@YAXPAX@Z
_TEXT	SEGMENT
___formal$ = 8						; size = 4
?__empty_global_delete@@YAXPAX@Z PROC			; __empty_global_delete, COMDAT

  00000	55		 push	 ebp
  00001	8b ec		 mov	 ebp, esp
  00003	81 ec c0 00 00
	00		 sub	 esp, 192		; 000000c0H
  00009	53		 push	 ebx
  0000a	56		 push	 esi
  0000b	57		 push	 edi
  0000c	8b fd		 mov	 edi, ebp
  0000e	33 c9		 xor	 ecx, ecx
  00010	b8 cc cc cc cc	 mov	 eax, -858993460		; ccccccccH
  00015	f3 ab		 rep stosd
  00017	b9 00 00 00 00	 mov	 ecx, OFFSET __6FA7CFB6_LEAP_YEAR@cpp
  0001c	e8 00 00 00 00	 call	 @__CheckForDebuggerJustMyCode@4
  00021	5f		 pop	 edi
  00022	5e		 pop	 esi
  00023	5b		 pop	 ebx
  00024	81 c4 c0 00 00
	00		 add	 esp, 192		; 000000c0H
  0002a	3b ec		 cmp	 ebp, esp
  0002c	e8 00 00 00 00	 call	 __RTC_CheckEsp
  00031	8b e5		 mov	 esp, ebp
  00033	5d		 pop	 ebp
  00034	c3		 ret	 0
?__empty_global_delete@@YAXPAX@Z ENDP			; __empty_global_delete
_TEXT	ENDS
END
