; Listing generated by Microsoft (R) Optimizing Compiler Version 19.33.31629.0 

	TITLE	D:\BSTU\2 sem\KPO\Labs\1 lab\lab1\first task\Debug\stdafx.obj
	.686P
	.XMM
	include listing.inc
	.model	flat

INCLUDELIB MSVCRTD
INCLUDELIB OLDNAMES

PUBLIC	___@@_PchSym_@00@UyhgfUCLhvnUpklUozyhUBLozyUozyBUurihgLgzhpUwvyftUhgwzucOlyq@4B2008FD98C1DD4
;	COMDAT ___@@_PchSym_@00@UyhgfUCLhvnUpklUozyhUBLozyUozyBUurihgLgzhpUwvyftUhgwzucOlyq@4B2008FD98C1DD4
_BSS	SEGMENT
___@@_PchSym_@00@UyhgfUCLhvnUpklUozyhUBLozyUozyBUurihgLgzhpUwvyftUhgwzucOlyq@4B2008FD98C1DD4 DD 01H DUP (?)
_BSS	ENDS
msvcjmc	SEGMENT
__0C632BB5_concurrencysal@h DB 01H
__D9B3E323_sal@h DB 01H
__68A61E54_vadefs@h DB 01H
__D24086D2_vcruntime@h DB 01H
__369DC3CF_xkeycheck@h DB 01H
__ACD4FF33_yvals_core@h DB 01H
__AEDD5E0D_limits@h DB 01H
__9E361CE0_climits DB 01H
__D3DE660D_corecrt@h DB 01H
__AB5758BB_vcruntime_new@h DB 01H
__BE1FCED5_vcruntime_new_debug@h DB 01H
__98189629_crtdbg@h DB 01H
__75C62C19_crtdefs@h DB 01H
__78DED866_use_ansi@h DB 01H
__AC9988AD_yvals@h DB 01H
__9FA8BB4C_corecrt_math@h DB 01H
__D474C801_math@h DB 01H
__7DE9E36C_corecrt_malloc@h DB 01H
__18B0C22D_stddef@h DB 01H
__C55A8E02_corecrt_search@h DB 01H
__4FBC8514_corecrt_wstdlib@h DB 01H
__651F9E88_stdlib@h DB 01H
__1AD93E12_cstdlib DB 01H
__83D0EA2F_xtr1common DB 01H
__177C99D9_intrin0@inl@h DB 01H
__6CEB9512_intrin0@h DB 01H
__BB09ED94_cmath DB 01H
__4C2892DF_corecrt_stdio_config@h DB 01H
__93572EE7_corecrt_wstdio@h DB 01H
__5F67261C_stdio@h DB 01H
__97FE3E06_cstdio DB 01H
__FF47366E_errno@h DB 01H
__F2F2C604_vcruntime_string@h DB 01H
__C40B9FB8_corecrt_memcpy_s@h DB 01H
__B698C7EE_corecrt_memory@h DB 01H
__C9CF11B0_corecrt_wstring@h DB 01H
__E36C0A2C_string@h DB 01H
__564B96F2_cstring DB 01H
__D72858D0_corecrt_wconio@h DB 01H
__4C7F7CD9_corecrt_wctype@h DB 01H
__9042FC79_corecrt_wdirect@h DB 01H
__613ADF9A_corecrt_share@h DB 01H
__D1540E55_corecrt_wio@h DB 01H
__BA5DDA64_corecrt_wprocess@h DB 01H
__D96B3561_corecrt_wtime@h DB 01H
__31F68727_types@h DB 01H
__187702CE_stat@h DB 01H
__A141C5E1_wchar@h DB 01H
__0D75E855_cwchar DB 01H
__BF12E4BF_cstddef DB 01H
__16A55D86_initializer_list DB 01H
__DACB2C8B_xstddef DB 01H
__4EB56D63_iosfwd DB 01H
__10AB7032_stdint@h DB 01H
__A787DF6F_cstdint DB 01H
__78340504_type_traits DB 01H
__2DD4BB99_utility DB 01H
__7C7308CF_xutility DB 01H
__6DDFBF8F_iterator DB 01H
__691C3EC4_share@h DB 01H
__B97A9922___msvc_system_error_abi@hpp DB 01H
__0ADF4AFD_cerrno DB 01H
__F132B97E_malloc@h DB 01H
__80E0E355_corecrt_terminate@h DB 01H
__42EA056F_eh@h DB 01H
__B6F1CB87_vcruntime_exception@h DB 01H
__BD99428F_exception DB 01H
__271340EC_float@h DB 01H
__E4BAF581_cfloat DB 01H
__2179CC77_isa_availability@h DB 01H
__825CB8E5_limits DB 01H
__F3D17BBD_new DB 01H
__B795CE59_xatomic@h DB 01H
__4741D85A_xmemory DB 01H
__33925EC6_xstring DB 01H
__34D778D2_stdexcept DB 01H
__EF4C2163_xcall_once@h DB 01H
__040C9DA2_xerrc@h DB 01H
__E5145BD5_time@h DB 01H
__7DBA719C_ctime DB 01H
__CAB7EB8E_xtimec@h DB 01H
__1990EFD5_xthreads@h DB 01H
__E969E427_atomic DB 01H
__50113343_system_error DB 01H
__83E9158C_vcruntime_typeinfo@h DB 01H
__0CACFBD6_typeinfo DB 01H
__3EF2B46B_memory DB 01H
__12B7E364_xfacet DB 01H
__E173EB37___msvc_xlocinfo_types@hpp DB 01H
__804F7422_ctype@h DB 01H
__9835D9A1_cctype DB 01H
__72596785_locale@h DB 01H
__8975E2C3_clocale DB 01H
__1325181E_xlocinfo DB 01H
__ECAC2AF7_xlocale DB 01H
__2AC06F0D_xiosbase DB 01H
__3677C06E_streambuf DB 01H
__722B4CE0_xlocnum DB 01H
__0B1C41AB_ios DB 01H
__FFBCF033_ostream DB 01H
__9C6CC509_istream DB 01H
__1E0A72D0_iostream DB 01H
__FCDCC866_stdafx@h DB 01H
__F27E49E1_first task@pch DB 01H
__D5779D54_stdafx@cpp DB 01H
msvcjmc	ENDS
PUBLIC	?__empty_global_delete@@YAXPAX@Z		; __empty_global_delete
PUBLIC	?__empty_global_delete@@YAXPAXI@Z		; __empty_global_delete
PUBLIC	__JustMyCode_Default
EXTRN	@__CheckForDebuggerJustMyCode@4:PROC
EXTRN	__RTC_CheckEsp:PROC
EXTRN	__RTC_InitBase:PROC
EXTRN	__RTC_Shutdown:PROC
;	COMDAT rtc$TMZ
rtc$TMZ	SEGMENT
__RTC_Shutdown.rtc$TMZ DD FLAT:__RTC_Shutdown
rtc$TMZ	ENDS
;	COMDAT rtc$IMZ
rtc$IMZ	SEGMENT
__RTC_InitBase.rtc$IMZ DD FLAT:__RTC_InitBase
rtc$IMZ	ENDS
; Function compile flags: /Odt
;	COMDAT __JustMyCode_Default
_TEXT	SEGMENT
__JustMyCode_Default PROC				; COMDAT
  00000	55		 push	 ebp
  00001	8b ec		 mov	 ebp, esp
  00003	5d		 pop	 ebp
  00004	c3		 ret	 0
__JustMyCode_Default ENDP
_TEXT	ENDS
; Function compile flags: /Odtp /RTCsu /ZI
; File D:\BSTU\2 sem\KPO\Labs\1 lab\lab1\first task\stdafx.cpp
;	COMDAT ?__empty_global_delete@@YAXPAXI@Z
_TEXT	SEGMENT
___formal$ = 8						; size = 4
___formal$ = 12						; size = 4
?__empty_global_delete@@YAXPAXI@Z PROC			; __empty_global_delete, COMDAT

  00000	55		 push	 ebp
  00001	8b ec		 mov	 ebp, esp
  00003	81 ec c0 00 00
	00		 sub	 esp, 192		; 000000c0H
  00009	53		 push	 ebx
  0000a	56		 push	 esi
  0000b	57		 push	 edi
  0000c	8b fd		 mov	 edi, ebp
  0000e	33 c9		 xor	 ecx, ecx
  00010	b8 cc cc cc cc	 mov	 eax, -858993460		; ccccccccH
  00015	f3 ab		 rep stosd
  00017	b9 00 00 00 00	 mov	 ecx, OFFSET __D5779D54_stdafx@cpp
  0001c	e8 00 00 00 00	 call	 @__CheckForDebuggerJustMyCode@4
  00021	5f		 pop	 edi
  00022	5e		 pop	 esi
  00023	5b		 pop	 ebx
  00024	81 c4 c0 00 00
	00		 add	 esp, 192		; 000000c0H
  0002a	3b ec		 cmp	 ebp, esp
  0002c	e8 00 00 00 00	 call	 __RTC_CheckEsp
  00031	8b e5		 mov	 esp, ebp
  00033	5d		 pop	 ebp
  00034	c3		 ret	 0
?__empty_global_delete@@YAXPAXI@Z ENDP			; __empty_global_delete
_TEXT	ENDS
; Function compile flags: /Odtp /RTCsu /ZI
; File D:\BSTU\2 sem\KPO\Labs\1 lab\lab1\first task\stdafx.cpp
;	COMDAT ?__empty_global_delete@@YAXPAX@Z
_TEXT	SEGMENT
___formal$ = 8						; size = 4
?__empty_global_delete@@YAXPAX@Z PROC			; __empty_global_delete, COMDAT

  00000	55		 push	 ebp
  00001	8b ec		 mov	 ebp, esp
  00003	81 ec c0 00 00
	00		 sub	 esp, 192		; 000000c0H
  00009	53		 push	 ebx
  0000a	56		 push	 esi
  0000b	57		 push	 edi
  0000c	8b fd		 mov	 edi, ebp
  0000e	33 c9		 xor	 ecx, ecx
  00010	b8 cc cc cc cc	 mov	 eax, -858993460		; ccccccccH
  00015	f3 ab		 rep stosd
  00017	b9 00 00 00 00	 mov	 ecx, OFFSET __D5779D54_stdafx@cpp
  0001c	e8 00 00 00 00	 call	 @__CheckForDebuggerJustMyCode@4
  00021	5f		 pop	 edi
  00022	5e		 pop	 esi
  00023	5b		 pop	 ebx
  00024	81 c4 c0 00 00
	00		 add	 esp, 192		; 000000c0H
  0002a	3b ec		 cmp	 ebp, esp
  0002c	e8 00 00 00 00	 call	 __RTC_CheckEsp
  00031	8b e5		 mov	 esp, ebp
  00033	5d		 pop	 ebp
  00034	c3		 ret	 0
?__empty_global_delete@@YAXPAX@Z ENDP			; __empty_global_delete
_TEXT	ENDS
END
